	.section	__TEXT,__text,regular,pure_instructions
	.section	__TEXT,__text,regular,pure_instructions
	.globl	_usage
	.align	4, 0x90
_usage:                                 ## @usage
Lfunc_begin0:
	.loc	1 39 0                  ## src/whoami.c:39:0
	.cfi_startproc
## BB#0:
	pushq	%rbp
Ltmp3:
	.cfi_def_cfa_offset 16
Ltmp4:
	.cfi_offset %rbp, -16
	movq	%rsp, %rbp
Ltmp5:
	.cfi_def_cfa_register %rbp
	pushq	%r15
	pushq	%r14
	pushq	%r12
	pushq	%rbx
Ltmp6:
	.cfi_offset %rbx, -48
Ltmp7:
	.cfi_offset %r12, -40
Ltmp8:
	.cfi_offset %r14, -32
Ltmp9:
	.cfi_offset %r15, -24
	##DEBUG_VALUE: usage:status <- EDI
	movl	%edi, %r14d
Ltmp10:
	##DEBUG_VALUE: usage:status <- R14D
	.loc	1 40 0 prologue_end     ## src/whoami.c:40:0
	testl	%r14d, %r14d
	jne	LBB0_1
## BB#2:
	##DEBUG_VALUE: usage:status <- R14D
	.loc	1 44 0                  ## src/whoami.c:44:0
Ltmp11:
	movq	_program_name@GOTPCREL(%rip), %rax
	movq	(%rax), %rsi
	leaq	L_.str(%rip), %rdi
	xorl	%eax, %eax
	callq	_printf
	.loc	1 45 0                  ## src/whoami.c:45:0
	movq	___stdoutp@GOTPCREL(%rip), %rbx
	movq	(%rbx), %rsi
	leaq	L_.str1(%rip), %rdi
	callq	_fputs
	.loc	1 50 0                  ## src/whoami.c:50:0
	movq	(%rbx), %rsi
	leaq	L_.str2(%rip), %rdi
	callq	_fputs
	.loc	1 51 0                  ## src/whoami.c:51:0
	movq	(%rbx), %rsi
	leaq	L_.str3(%rip), %rdi
	callq	_fputs
	leaq	_emit_ancillary_info.infomap(%rip), %rbx
	leaq	L_.str10(%rip), %rsi
	.loc	2 584 0                 ## src/system.h:584:0
Ltmp12:
	leaq	L_.str4(%rip), %r12
	.align	4, 0x90
LBB0_4:                                 ## =>This Inner Loop Header: Depth=1
	##DEBUG_VALUE: usage:status <- R14D
	movq	%r12, %rdi
	callq	_strcmp
	testl	%eax, %eax
	je	LBB0_5
## BB#3:                                ##   in Loop: Header=BB0_4 Depth=1
	##DEBUG_VALUE: usage:status <- R14D
Ltmp13:
	##DEBUG_VALUE: map_prog <- RBX
	movq	16(%rbx), %rsi
	.loc	2 585 0                 ## src/system.h:585:0
	addq	$16, %rbx
Ltmp14:
	.loc	2 584 0                 ## src/system.h:584:0
	testq	%rsi, %rsi
	jne	LBB0_4
LBB0_5:                                 ## %.critedge.i
	##DEBUG_VALUE: usage:status <- R14D
	.loc	2 587 0                 ## src/system.h:587:0
	movq	8(%rbx), %r15
Ltmp15:
	##DEBUG_VALUE: node <- R15
	testq	%r15, %r15
	cmoveq	%r12, %r15
Ltmp16:
	.loc	2 590 0                 ## src/system.h:590:0
	leaq	L_.str19(%rip), %rdi
	leaq	L_.str6(%rip), %rsi
	leaq	L_.str20(%rip), %rdx
	xorl	%eax, %eax
	callq	_printf
	movl	$6, %edi
	xorl	%esi, %esi
	.loc	2 594 0                 ## src/system.h:594:0
	callq	_setlocale
Ltmp17:
	##DEBUG_VALUE: lc_messages <- RAX
	.loc	2 595 0                 ## src/system.h:595:0
	testq	%rax, %rax
	je	LBB0_8
## BB#6:
	##DEBUG_VALUE: usage:status <- R14D
Ltmp18:
	##DEBUG_VALUE: lc_messages <- RAX
	leaq	L_.str21(%rip), %rsi
	movl	$3, %edx
	movq	%rax, %rdi
	callq	_strncmp
Ltmp19:
	testl	%eax, %eax
	je	LBB0_8
## BB#7:
	##DEBUG_VALUE: usage:status <- R14D
	.loc	2 601 0                 ## src/system.h:601:0
	leaq	L_.str22(%rip), %rdi
	leaq	L_.str4(%rip), %rsi
	xorl	%eax, %eax
	callq	_printf
LBB0_8:                                 ## %emit_ancillary_info.exit
	##DEBUG_VALUE: usage:status <- R14D
	.loc	2 604 0                 ## src/system.h:604:0
	leaq	L_.str23(%rip), %rdi
	leaq	L_.str20(%rip), %rsi
	xorl	%eax, %eax
	movq	%r12, %rdx
	callq	_printf
	.loc	2 606 0                 ## src/system.h:606:0
	cmpq	%r12, %r15
	leaq	L_.str25(%rip), %rax
	leaq	L_.str5(%rip), %rdx
	cmoveq	%rax, %rdx
	leaq	L_.str24(%rip), %rdi
	xorl	%eax, %eax
	movq	%r15, %rsi
	callq	_printf
	##DEBUG_VALUE: usage:status <- R14D
Ltmp20:
	.loc	1 54 0                  ## src/whoami.c:54:0
	movl	%r14d, %edi
	callq	_exit
LBB0_1:
	##DEBUG_VALUE: usage:status <- R14D
	.loc	2 613 0                 ## src/system.h:613:0
Ltmp21:
	movq	___stderrp@GOTPCREL(%rip), %rax
	movq	(%rax), %rcx
	movq	_program_name@GOTPCREL(%rip), %rax
	movq	(%rax), %rdx
	leaq	L_.str26(%rip), %rsi
	xorl	%eax, %eax
	movq	%rcx, %rdi
	callq	_fprintf
Ltmp22:
	##DEBUG_VALUE: usage:status <- R14D
	.loc	1 54 0                  ## src/whoami.c:54:0
	movl	%r14d, %edi
	callq	_exit
Ltmp23:
Lfunc_end0:
	.cfi_endproc

	.globl	_main
	.align	4, 0x90
_main:                                  ## @main
Lfunc_begin1:
	.loc	1 59 0                  ## src/whoami.c:59:0
	.cfi_startproc
## BB#0:
	pushq	%rbp
Ltmp27:
	.cfi_def_cfa_offset 16
Ltmp28:
	.cfi_offset %rbp, -16
	movq	%rsp, %rbp
Ltmp29:
	.cfi_def_cfa_register %rbp
	pushq	%r15
	pushq	%r14
	pushq	%rbx
	subq	$24, %rsp
Ltmp30:
	.cfi_offset %rbx, -40
Ltmp31:
	.cfi_offset %r14, -32
Ltmp32:
	.cfi_offset %r15, -24
	##DEBUG_VALUE: main:argc <- EDI
	##DEBUG_VALUE: main:argv <- RSI
	movq	%rsi, %r14
Ltmp33:
	##DEBUG_VALUE: main:argv <- R14
	movl	%edi, %ebx
Ltmp34:
	##DEBUG_VALUE: main:NO_UID <- -1
	##DEBUG_VALUE: main:argc <- EBX
	.loc	1 65 0 prologue_end     ## src/whoami.c:65:0
	movq	(%r14), %rdi
	callq	_set_program_name
	.loc	1 66 0                  ## src/whoami.c:66:0
	leaq	L_.str5(%rip), %r15
	xorl	%edi, %edi
	movq	%r15, %rsi
	callq	_setlocale
	.loc	1 70 0                  ## src/whoami.c:70:0
	movq	_close_stdout@GOTPCREL(%rip), %rdi
	callq	_atexit
	.loc	1 72 0                  ## src/whoami.c:72:0
	movq	_Version@GOTPCREL(%rip), %rax
	movq	(%rax), %r8
	leaq	L_.str7(%rip), %rax
	movq	%rax, (%rsp)
	movq	$0, 8(%rsp)
	leaq	L_.str4(%rip), %rdx
	leaq	L_.str6(%rip), %rcx
	leaq	_usage(%rip), %r9
	xorl	%eax, %eax
	movl	%ebx, %edi
	movq	%r14, %rsi
	callq	_parse_long_options
	xorl	%ecx, %ecx
	xorl	%r8d, %r8d
	.loc	1 74 0                  ## src/whoami.c:74:0
Ltmp35:
	movl	%ebx, %edi
	movq	%r14, %rsi
	movq	%r15, %rdx
	callq	_rpl_getopt_long
	cmpl	$-1, %eax
	jne	LBB1_6
Ltmp36:
## BB#1:
	##DEBUG_VALUE: main:argc <- EBX
	##DEBUG_VALUE: main:argv <- R14
	##DEBUG_VALUE: main:NO_UID <- -1
	.loc	1 77 0                  ## src/whoami.c:77:0
	movq	_rpl_optind@GOTPCREL(%rip), %rax
	.loc	1 79 0                  ## src/whoami.c:79:0
Ltmp37:
	movslq	(%rax), %rax
Ltmp38:
	.loc	1 77 0                  ## src/whoami.c:77:0
	cmpl	%ebx, %eax
	jne	LBB1_7
Ltmp39:
## BB#2:
	##DEBUG_VALUE: main:NO_UID <- -1
	.loc	1 83 0                  ## src/whoami.c:83:0
	callq	___error
	movl	$0, (%rax)
	.loc	1 84 0                  ## src/whoami.c:84:0
	callq	_geteuid
	movl	%eax, %ebx
Ltmp40:
	##DEBUG_VALUE: main:uid <- EBX
	.loc	1 85 0                  ## src/whoami.c:85:0
	cmpl	$-1, %ebx
	jne	LBB1_4
## BB#3:
	##DEBUG_VALUE: main:NO_UID <- -1
	##DEBUG_VALUE: main:uid <- EBX
	callq	___error
	cmpl	$0, (%rax)
	jne	LBB1_8
LBB1_4:
	##DEBUG_VALUE: main:NO_UID <- -1
	##DEBUG_VALUE: main:uid <- EBX
	movl	%ebx, %edi
	callq	_getpwuid
Ltmp41:
	##DEBUG_VALUE: main:pw <- RAX
	.loc	1 86 0                  ## src/whoami.c:86:0
	testq	%rax, %rax
	je	LBB1_8
Ltmp42:
## BB#5:
	##DEBUG_VALUE: main:NO_UID <- -1
	##DEBUG_VALUE: main:pw <- RAX
	.loc	1 89 0                  ## src/whoami.c:89:0
	movq	(%rax), %rdi
	callq	_puts
Ltmp43:
	xorl	%eax, %eax
	.loc	1 90 0                  ## src/whoami.c:90:0
	addq	$24, %rsp
	popq	%rbx
	popq	%r14
	popq	%r15
	popq	%rbp
	retq
LBB1_6:
	##DEBUG_VALUE: main:NO_UID <- -1
	movl	$1, %edi
	.loc	1 75 0                  ## src/whoami.c:75:0
Ltmp44:
	callq	_usage
Ltmp45:
LBB1_7:
	##DEBUG_VALUE: main:argv <- R14
	##DEBUG_VALUE: main:NO_UID <- -1
	.loc	1 79 0                  ## src/whoami.c:79:0
	movq	(%r14,%rax,8), %rax
	movq	%rax, %rdi
	callq	_quote
	movq	%rax, %rcx
	leaq	L_.str8(%rip), %rdx
	xorl	%edi, %edi
	xorl	%esi, %esi
	xorl	%eax, %eax
	callq	_error
	movl	$1, %edi
	.loc	1 80 0                  ## src/whoami.c:80:0
	callq	_usage
Ltmp46:
LBB1_8:                                 ## %.thread
	##DEBUG_VALUE: main:NO_UID <- -1
	##DEBUG_VALUE: main:uid <- EBX
	.loc	1 87 0                  ## src/whoami.c:87:0
	callq	___error
	movl	(%rax), %ecx
	movl	%ebx, %ebx
Ltmp47:
	leaq	L_.str9(%rip), %rdx
	movl	$1, %edi
	xorl	%eax, %eax
	movl	%ecx, %esi
	movq	%rbx, %rcx
	callq	_error
Ltmp48:
Lfunc_end1:
	.file	3 "/Applications/Xcode.app/Contents/Developer/Platforms/MacOSX.platform/Developer/SDKs/MacOSX10.10.sdk/usr/include/i386/_types.h"
	.file	4 "/Applications/Xcode.app/Contents/Developer/Platforms/MacOSX.platform/Developer/SDKs/MacOSX10.10.sdk/usr/include/sys/_types.h"
	.file	5 "/Applications/Xcode.app/Contents/Developer/Platforms/MacOSX.platform/Developer/SDKs/MacOSX10.10.sdk/usr/include/sys/_types/_uid_t.h"
	.file	6 "/Applications/Xcode.app/Contents/Developer/Platforms/MacOSX.platform/Developer/SDKs/MacOSX10.10.sdk/usr/include/pwd.h"
	.file	7 "/Applications/Xcode.app/Contents/Developer/Platforms/MacOSX.platform/Developer/SDKs/MacOSX10.10.sdk/usr/include/sys/_types/_gid_t.h"
	.cfi_endproc

	.section	__TEXT,__cstring,cstring_literals
L_.str:                                 ## @.str
	.asciz	"Usage: %s [OPTION]...\n"

L_.str1:                                ## @.str1
	.asciz	"Print the user name associated with the current effective user ID.\nSame as id -un.\n\n"

L_.str2:                                ## @.str2
	.asciz	"      --help     display this help and exit\n"

L_.str3:                                ## @.str3
	.asciz	"      --version  output version information and exit\n"

L_.str4:                                ## @.str4
	.asciz	"whoami"

L_.str5:                                ## @.str5
	.space	1

L_.str6:                                ## @.str6
	.asciz	"GNU coreutils"

L_.str7:                                ## @.str7
	.asciz	"Richard Mlynarik"

L_.str8:                                ## @.str8
	.asciz	"extra operand %s"

L_.str9:                                ## @.str9
	.asciz	"cannot find name for user ID %lu"

	.section	__DATA,__const
	.align	4                       ## @emit_ancillary_info.infomap
_emit_ancillary_info.infomap:
	.quad	L_.str10
	.quad	L_.str11
	.quad	L_.str12
	.quad	L_.str13
	.quad	L_.str14
	.quad	L_.str15
	.quad	L_.str16
	.quad	L_.str15
	.quad	L_.str17
	.quad	L_.str15
	.quad	L_.str18
	.quad	L_.str15
	.space	16

	.section	__TEXT,__cstring,cstring_literals
L_.str10:                               ## @.str10
	.asciz	"["

L_.str11:                               ## @.str11
	.asciz	"test invocation"

L_.str12:                               ## @.str12
	.asciz	"coreutils"

L_.str13:                               ## @.str13
	.asciz	"Multi-call invocation"

L_.str14:                               ## @.str14
	.asciz	"sha224sum"

L_.str15:                               ## @.str15
	.asciz	"sha2 utilities"

L_.str16:                               ## @.str16
	.asciz	"sha256sum"

L_.str17:                               ## @.str17
	.asciz	"sha384sum"

L_.str18:                               ## @.str18
	.asciz	"sha512sum"

L_.str19:                               ## @.str19
	.asciz	"\n%s online help: <%s>\n"

L_.str20:                               ## @.str20
	.asciz	"http://www.gnu.org/software/coreutils/"

L_.str21:                               ## @.str21
	.asciz	"en_"

L_.str22:                               ## @.str22
	.asciz	"Report %s translation bugs to <http://translationproject.org/team/>\n"

L_.str23:                               ## @.str23
	.asciz	"Full documentation at: <%s%s>\n"

L_.str24:                               ## @.str24
	.asciz	"or available locally via: info '(coreutils) %s%s'\n"

L_.str25:                               ## @.str25
	.asciz	" invocation"

L_.str26:                               ## @.str26
	.asciz	"Try '%s --help' for more information.\n"

	.section	__DATA,__const
Ldebug_end0:
	.section	__TEXT,__text,regular,pure_instructions
Ldebug_end1: