	.file	"regexmodule.c"
	.text
.Ltext0:
	.p2align 4,,15
	.type	regex_get_syntax, @function
regex_get_syntax:
.LFB157:
	.file 1 "/home/user/Desktop/Python-2.4.5/Modules/regexmodule.c"
	.loc 1 629 0
	.cfi_startproc
.LVL0:
	pushl	%ebx
	.cfi_def_cfa_offset 8
	.cfi_offset 3, -8
	call	__x86.get_pc_thunk.bx
	addl	$_GLOBAL_OFFSET_TABLE_, %ebx
	subl	$24, %esp
	.cfi_def_cfa_offset 32
	.loc 1 630 0
	movl	_Py_re_syntax@GOT(%ebx), %eax
	movl	(%eax), %eax
	movl	%eax, (%esp)
	call	PyInt_FromLong@PLT
.LVL1:
	.loc 1 631 0
	addl	$24, %esp
	.cfi_def_cfa_offset 8
	popl	%ebx
	.cfi_restore 3
	.cfi_def_cfa_offset 4
	ret
	.cfi_endproc
.LFE157:
	.size	regex_get_syntax, .-regex_get_syntax
	.section	.rodata.str1.1,"aMS",@progbits,1
.LC0:
	.string	"i:set_syntax"
	.text
	.p2align 4,,15
	.type	regex_set_syntax, @function
regex_set_syntax:
.LFB156:
	.loc 1 614 0
	.cfi_startproc
.LVL2:
	pushl	%ebx
	.cfi_def_cfa_offset 8
	.cfi_offset 3, -8
	call	__x86.get_pc_thunk.bx
	addl	$_GLOBAL_OFFSET_TABLE_, %ebx
	subl	$40, %esp
	.cfi_def_cfa_offset 48
	.loc 1 616 0
	leal	28(%esp), %eax
	movl	%eax, 8(%esp)
	leal	.LC0@GOTOFF(%ebx), %eax
	movl	%eax, 4(%esp)
	movl	52(%esp), %eax
	movl	%eax, (%esp)
	call	PyArg_ParseTuple@PLT
.LVL3:
	movl	%eax, %edx
	.loc 1 617 0
	xorl	%eax, %eax
	.loc 1 616 0
	testl	%edx, %edx
	je	.L4
	.loc 1 618 0
	movl	28(%esp), %eax
	movl	%eax, (%esp)
	call	_Py_re_set_syntax@PLT
.LVL4:
	movl	%eax, 28(%esp)
	.loc 1 620 0
	movl	cache_pat@GOTOFF(%ebx), %eax
	testl	%eax, %eax
	je	.L6
	.loc 1 620 0 is_stmt 0 discriminator 1
	movl	(%eax), %ecx
	leal	-1(%ecx), %edx
	testl	%edx, %edx
	movl	%edx, (%eax)
	je	.L15
.L6:
	.loc 1 622 0 is_stmt 1
	movl	cache_prog@GOTOFF(%ebx), %eax
	.loc 1 621 0
	movl	$0, cache_pat@GOTOFF(%ebx)
	.loc 1 622 0
	testl	%eax, %eax
	je	.L9
	.loc 1 622 0 is_stmt 0 discriminator 1
	movl	(%eax), %ecx
	leal	-1(%ecx), %edx
	testl	%edx, %edx
	movl	%edx, (%eax)
	je	.L16
.L9:
	.loc 1 624 0 is_stmt 1
	movl	28(%esp), %eax
	.loc 1 623 0
	movl	$0, cache_prog@GOTOFF(%ebx)
	.loc 1 624 0
	movl	%eax, (%esp)
	call	PyInt_FromLong@PLT
.LVL5:
.L4:
	.loc 1 625 0
	addl	$40, %esp
	.cfi_remember_state
	.cfi_def_cfa_offset 8
	popl	%ebx
	.cfi_restore 3
	.cfi_def_cfa_offset 4
	ret
	.p2align 4,,7
	.p2align 3
.L16:
	.cfi_restore_state
	.loc 1 622 0 discriminator 1
	movl	4(%eax), %edx
	movl	%eax, (%esp)
	call	*24(%edx)
.LVL6:
	jmp	.L9
	.p2align 4,,7
	.p2align 3
.L15:
	.loc 1 620 0 discriminator 1
	movl	4(%eax), %edx
	movl	%eax, (%esp)
	call	*24(%edx)
.LVL7:
	.p2align 4,,4
	jmp	.L6
	.cfi_endproc
.LFE156:
	.size	regex_set_syntax, .-regex_set_syntax
	.section	.rodata.str1.1
.LC1:
	.string	"O|i:search"
.LC2:
	.string	"t#:search"
.LC3:
	.string	"search offset out of range"
.LC4:
	.string	"match failure"
	.text
	.p2align 4,,15
	.type	regobj_search, @function
regobj_search:
.LFB145:
	.loc 1 118 0
	.cfi_startproc
.LVL8:
	pushl	%edi
	.cfi_def_cfa_offset 8
	.cfi_offset 7, -8
	pushl	%esi
	.cfi_def_cfa_offset 12
	.cfi_offset 6, -12
	pushl	%ebx
	.cfi_def_cfa_offset 16
	.cfi_offset 3, -16
	call	__x86.get_pc_thunk.bx
	addl	$_GLOBAL_OFFSET_TABLE_, %ebx
	subl	$48, %esp
	.cfi_def_cfa_offset 64
	.loc 1 126 0
	leal	44(%esp), %eax
	.loc 1 118 0
	movl	64(%esp), %esi
	.loc 1 126 0
	movl	%eax, 12(%esp)
	leal	32(%esp), %eax
	movl	%eax, 8(%esp)
	.loc 1 122 0
	movl	$0, 44(%esp)
	.loc 1 126 0
	leal	.LC1@GOTOFF(%ebx), %eax
	movl	%eax, 4(%esp)
	movl	68(%esp), %eax
	movl	%eax, (%esp)
	call	PyArg_ParseTuple@PLT
.LVL9:
	testl	%eax, %eax
	je	.L36
	.loc 1 128 0
	leal	40(%esp), %eax
	movl	%eax, 12(%esp)
	leal	36(%esp), %eax
	movl	%eax, 8(%esp)
	leal	.LC2@GOTOFF(%ebx), %eax
	movl	%eax, 4(%esp)
	movl	32(%esp), %eax
	movl	%eax, (%esp)
	call	PyArg_Parse@PLT
.LVL10:
	testl	%eax, %eax
	je	.L36
	.loc 1 131 0
	movl	44(%esp), %eax
	testl	%eax, %eax
	js	.L21
	.loc 1 131 0 is_stmt 0 discriminator 1
	movl	40(%esp), %ecx
	cmpl	%ecx, %eax
	jg	.L21
	.loc 1 140 0 is_stmt 1
	movl	1100(%esi), %edx
	.loc 1 139 0
	movl	%ecx, %edi
	subl	%eax, %edi
.LVL11:
	.loc 1 140 0
	testl	%edx, %edx
	je	.L23
	.loc 1 140 0 is_stmt 0 discriminator 1
	subl	$1, (%edx)
	je	.L24
.L35:
	movl	44(%esp), %eax
	movl	40(%esp), %ecx
.L23:
	.loc 1 141 0 is_stmt 1
	movl	$0, 1100(%esi)
	.loc 1 142 0
	leal	40(%esi), %edx
	movl	%eax, 12(%esp)
	movl	36(%esp), %eax
	movl	%edx, 20(%esp)
	movl	%edi, 16(%esp)
	movl	%ecx, 8(%esp)
	movl	%eax, 4(%esp)
	leal	8(%esi), %eax
	movl	%eax, (%esp)
	call	_Py_re_search@PLT
.LVL12:
	.loc 1 144 0
	cmpl	$-1, %eax
	jl	.L37
	.loc 1 151 0
	je	.L26
	.loc 1 152 0
	movl	32(%esp), %edx
	addl	$1, (%edx)
	.loc 1 153 0
	movl	32(%esp), %edx
	movl	%edx, 1100(%esi)
.L26:
	.loc 1 155 0
	movl	%eax, (%esp)
	call	PyInt_FromLong@PLT
.LVL13:
.L19:
	.loc 1 156 0
	addl	$48, %esp
	.cfi_remember_state
	.cfi_def_cfa_offset 16
	popl	%ebx
	.cfi_restore 3
	.cfi_def_cfa_offset 12
	popl	%esi
	.cfi_restore 6
	.cfi_def_cfa_offset 8
	popl	%edi
	.cfi_restore 7
	.cfi_def_cfa_offset 4
.LVL14:
	ret
	.p2align 4,,7
	.p2align 3
.L21:
	.cfi_restore_state
	.loc 1 132 0
	leal	.LC3@GOTOFF(%ebx), %eax
	movl	%eax, 4(%esp)
	movl	RegexError@GOTOFF(%ebx), %eax
	movl	%eax, (%esp)
	call	PyErr_SetString@PLT
.LVL15:
	.p2align 4,,7
	.p2align 3
.L36:
	.loc 1 156 0
	addl	$48, %esp
	.cfi_remember_state
	.cfi_def_cfa_offset 16
	.loc 1 133 0
	xorl	%eax, %eax
	.loc 1 156 0
	popl	%ebx
	.cfi_restore 3
	.cfi_def_cfa_offset 12
	popl	%esi
	.cfi_restore 6
	.cfi_def_cfa_offset 8
	popl	%edi
	.cfi_restore 7
	.cfi_def_cfa_offset 4
	ret
.LVL16:
	.p2align 4,,7
	.p2align 3
.L24:
	.cfi_restore_state
	.loc 1 140 0 discriminator 1
	movl	1100(%esi), %eax
	movl	4(%eax), %edx
	movl	%eax, (%esp)
	call	*24(%edx)
.LVL17:
	jmp	.L35
.LVL18:
	.p2align 4,,7
	.p2align 3
.L37:
	.loc 1 147 0
	call	PyErr_Occurred@PLT
.LVL19:
	testl	%eax, %eax
	.p2align 4,,6
	jne	.L36
	.loc 1 148 0
	leal	.LC4@GOTOFF(%ebx), %edx
	movl	%edx, 4(%esp)
	movl	RegexError@GOTOFF(%ebx), %edx
	movl	%eax, 28(%esp)
	movl	%edx, (%esp)
	call	PyErr_SetString@PLT
.LVL20:
	movl	28(%esp), %eax
	jmp	.L19
	.cfi_endproc
.LFE145:
	.size	regobj_search, .-regobj_search
	.section	.rodata.str1.1
.LC5:
	.string	"O|i:match"
.LC6:
	.string	"t#"
.LC7:
	.string	"match offset out of range"
	.text
	.p2align 4,,15
	.type	regobj_match, @function
regobj_match:
.LFB144:
	.loc 1 82 0
	.cfi_startproc
.LVL21:
	pushl	%esi
	.cfi_def_cfa_offset 8
	.cfi_offset 6, -8
	pushl	%ebx
	.cfi_def_cfa_offset 12
	.cfi_offset 3, -12
	call	__x86.get_pc_thunk.bx
	addl	$_GLOBAL_OFFSET_TABLE_, %ebx
	subl	$52, %esp
	.cfi_def_cfa_offset 64
	.loc 1 89 0
	leal	44(%esp), %eax
	.loc 1 82 0
	movl	64(%esp), %esi
	.loc 1 89 0
	movl	%eax, 12(%esp)
	leal	32(%esp), %eax
	movl	%eax, 8(%esp)
	.loc 1 86 0
	movl	$0, 44(%esp)
	.loc 1 89 0
	leal	.LC5@GOTOFF(%ebx), %eax
	movl	%eax, 4(%esp)
	movl	68(%esp), %eax
	movl	%eax, (%esp)
	call	PyArg_ParseTuple@PLT
.LVL22:
	testl	%eax, %eax
	je	.L57
	.loc 1 91 0
	leal	40(%esp), %eax
	movl	%eax, 12(%esp)
	leal	36(%esp), %eax
	movl	%eax, 8(%esp)
	leal	.LC6@GOTOFF(%ebx), %eax
	movl	%eax, 4(%esp)
	movl	32(%esp), %eax
	movl	%eax, (%esp)
	call	PyArg_Parse@PLT
.LVL23:
	testl	%eax, %eax
	je	.L57
	.loc 1 94 0
	movl	44(%esp), %edx
	testl	%edx, %edx
	js	.L42
	.loc 1 94 0 is_stmt 0 discriminator 1
	movl	40(%esp), %ecx
	cmpl	%ecx, %edx
	jg	.L42
	.loc 1 98 0 is_stmt 1
	movl	1100(%esi), %eax
	testl	%eax, %eax
	je	.L44
	.loc 1 98 0 is_stmt 0 discriminator 1
	movl	(%eax), %ecx
	leal	-1(%ecx), %edx
	testl	%edx, %edx
	movl	%edx, (%eax)
	je	.L45
.L56:
	movl	44(%esp), %edx
	movl	40(%esp), %ecx
.L44:
	.loc 1 100 0 is_stmt 1
	leal	40(%esi), %eax
	.loc 1 99 0
	movl	$0, 1100(%esi)
	.loc 1 100 0
	movl	%eax, 16(%esp)
	movl	36(%esp), %eax
	movl	%edx, 12(%esp)
	movl	%ecx, 8(%esp)
	movl	%eax, 4(%esp)
	leal	8(%esi), %eax
	movl	%eax, (%esp)
	call	_Py_re_match@PLT
.LVL24:
	.loc 1 102 0
	cmpl	$-1, %eax
	jl	.L58
	.loc 1 109 0
	je	.L47
	.loc 1 110 0
	movl	32(%esp), %edx
	addl	$1, (%edx)
	.loc 1 111 0
	movl	32(%esp), %edx
	movl	%edx, 1100(%esi)
.L47:
	.loc 1 113 0
	movl	%eax, (%esp)
	call	PyInt_FromLong@PLT
.LVL25:
.L40:
	.loc 1 114 0
	addl	$52, %esp
	.cfi_remember_state
	.cfi_def_cfa_offset 12
	popl	%ebx
	.cfi_restore 3
	.cfi_def_cfa_offset 8
	popl	%esi
	.cfi_restore 6
	.cfi_def_cfa_offset 4
	ret
	.p2align 4,,7
	.p2align 3
.L42:
	.cfi_restore_state
	.loc 1 95 0
	leal	.LC7@GOTOFF(%ebx), %eax
	movl	%eax, 4(%esp)
	movl	RegexError@GOTOFF(%ebx), %eax
	movl	%eax, (%esp)
	call	PyErr_SetString@PLT
.LVL26:
	.p2align 4,,7
	.p2align 3
.L57:
	.loc 1 114 0
	addl	$52, %esp
	.cfi_remember_state
	.cfi_def_cfa_offset 12
	.loc 1 96 0
	xorl	%eax, %eax
	.loc 1 114 0
	popl	%ebx
	.cfi_restore 3
	.cfi_def_cfa_offset 8
	popl	%esi
	.cfi_restore 6
	.cfi_def_cfa_offset 4
	ret
	.p2align 4,,7
	.p2align 3
.L45:
	.cfi_restore_state
	.loc 1 98 0 discriminator 1
	movl	1100(%esi), %eax
	movl	4(%eax), %edx
	movl	%eax, (%esp)
	call	*24(%edx)
.LVL27:
	jmp	.L56
.LVL28:
	.p2align 4,,7
	.p2align 3
.L58:
	.loc 1 105 0
	call	PyErr_Occurred@PLT
.LVL29:
	testl	%eax, %eax
	.p2align 4,,6
	jne	.L57
	.loc 1 106 0
	leal	.LC4@GOTOFF(%ebx), %edx
	movl	%edx, 4(%esp)
	movl	RegexError@GOTOFF(%ebx), %edx
	movl	%eax, 28(%esp)
	movl	%edx, (%esp)
	call	PyErr_SetString@PLT
.LVL30:
	movl	28(%esp), %eax
	jmp	.L40
	.cfi_endproc
.LFE144:
	.size	regobj_match, .-regobj_match
	.section	.rodata.str1.4,"aMS",@progbits,1
	.align 4
.LC8:
	.string	"translation table must be 256 bytes"
	.text
	.p2align 4,,15
	.type	newregexobject, @function
newregexobject:
.LFB149:
	.loc 1 363 0
	.cfi_startproc
.LVL31:
	pushl	%ebp
	.cfi_def_cfa_offset 8
	.cfi_offset 5, -8
	movl	%edx, %ebp
	pushl	%edi
	.cfi_def_cfa_offset 12
	.cfi_offset 7, -12
	movl	%eax, %edi
	pushl	%esi
	.cfi_def_cfa_offset 16
	.cfi_offset 6, -16
	pushl	%ebx
	.cfi_def_cfa_offset 20
	.cfi_offset 3, -20
	call	__x86.get_pc_thunk.bx
	addl	$_GLOBAL_OFFSET_TABLE_, %ebx
	subl	$44, %esp
	.cfi_def_cfa_offset 64
	.loc 1 368 0
	leal	28(%esp), %eax
.LVL32:
	movl	%eax, 12(%esp)
	leal	24(%esp), %eax
	movl	%eax, 8(%esp)
	movl	%edi, (%esp)
	leal	.LC6@GOTOFF(%ebx), %eax
	movl	%eax, 4(%esp)
	call	PyArg_Parse@PLT
.LVL33:
	testl	%eax, %eax
	je	.L82
	.loc 1 371 0
	testl	%ebp, %ebp
	je	.L62
	.loc 1 371 0 is_stmt 0 discriminator 1
	movl	%ebp, (%esp)
	call	PyString_Size@PLT
.LVL34:
	cmpl	$256, %eax
	jne	.L83
.L62:
	.loc 1 376 0 is_stmt 1
	leal	Regextype@GOTOFF(%ebx), %eax
	movl	%eax, (%esp)
	call	_PyObject_New@PLT
.LVL35:
	.loc 1 377 0
	testl	%eax, %eax
	.loc 1 376 0
	movl	%eax, %esi
.LVL36:
	.loc 1 377 0
	je	.L82
.LBB23:
	.loc 1 379 0
	movl	$0, 8(%eax)
	.loc 1 382 0
	testl	%ebp, %ebp
	.loc 1 380 0
	movl	$0, 12(%eax)
	.loc 1 381 0
	leal	840(%eax), %eax
.LVL37:
	movl	%eax, 20(%esi)
	.loc 1 382 0
	je	.L64
	.loc 1 383 0
	movl	%ebp, (%esp)
	call	PyString_AsString@PLT
.LVL38:
	.loc 1 384 0
	testl	%eax, %eax
	.loc 1 383 0
	movl	%eax, 24(%esi)
	.loc 1 384 0
	je	.L65
	.loc 1 386 0
	addl	$1, 0(%ebp)
.L66:
	.loc 1 392 0
	movl	68(%esp), %eax
	.loc 1 390 0
	movl	%ebp, 1096(%esi)
	.loc 1 391 0
	movl	$0, 1100(%esi)
	.loc 1 392 0
	movl	%eax, 1104(%esi)
	.loc 1 395 0
	movl	64(%esp), %eax
	.loc 1 393 0
	addl	$1, (%edi)
	.loc 1 394 0
	movl	%edi, 1112(%esi)
	.loc 1 395 0
	addl	$1, (%eax)
	.loc 1 396 0
	movl	%eax, 1108(%esi)
	.loc 1 397 0
	leal	8(%esi), %eax
	movl	%eax, 8(%esp)
	movl	28(%esp), %eax
	movl	%eax, 4(%esp)
	movl	24(%esp), %eax
	movl	%eax, (%esp)
	call	_Py_re_compile_pattern@PLT
.LVL39:
	movl	%esi, %edx
	.loc 1 398 0
	testl	%eax, %eax
	je	.L61
.LVL40:
	.loc 1 399 0
	movl	%eax, 4(%esp)
	movl	RegexError@GOTOFF(%ebx), %eax
.LVL41:
	movl	%eax, (%esp)
	call	PyErr_SetString@PLT
.LVL42:
.L65:
.LBE23:
	.loc 1 405 0
	subl	$1, (%esi)
	je	.L84
.LVL43:
.L82:
	.loc 1 406 0 discriminator 1
	xorl	%edx, %edx
.L61:
	.loc 1 407 0
	addl	$44, %esp
	.cfi_remember_state
	.cfi_def_cfa_offset 20
	movl	%edx, %eax
	popl	%ebx
	.cfi_restore 3
	.cfi_def_cfa_offset 16
	popl	%esi
	.cfi_restore 6
	.cfi_def_cfa_offset 12
	popl	%edi
	.cfi_restore 7
	.cfi_def_cfa_offset 8
.LVL44:
	popl	%ebp
	.cfi_restore 5
	.cfi_def_cfa_offset 4
.LVL45:
	ret
.LVL46:
	.p2align 4,,7
	.p2align 3
.L64:
	.cfi_restore_state
.LBB24:
	.loc 1 389 0
	movl	$0, 24(%esi)
	jmp	.L66
	.p2align 4,,7
	.p2align 3
.L84:
.LBE24:
	.loc 1 405 0 discriminator 1
	movl	4(%esi), %eax
	movl	%esi, (%esp)
	call	*24(%eax)
.LVL47:
	jmp	.L82
.LVL48:
	.p2align 4,,7
	.p2align 3
.L83:
	.loc 1 372 0
	leal	.LC8@GOTOFF(%ebx), %eax
	movl	%eax, 4(%esp)
	movl	RegexError@GOTOFF(%ebx), %eax
	movl	%eax, (%esp)
	call	PyErr_SetString@PLT
.LVL49:
	.loc 1 374 0
	xorl	%edx, %edx
	jmp	.L61
	.cfi_endproc
.LFE149:
	.size	newregexobject, .-newregexobject
	.section	.rodata.str1.1
.LC9:
	.string	"S|S:symcomp"
	.text
	.p2align 4,,15
	.type	regex_symcomp, @function
regex_symcomp:
.LFB152:
	.loc 1 526 0
	.cfi_startproc
.LVL50:
	pushl	%ebp
	.cfi_def_cfa_offset 8
	.cfi_offset 5, -8
	pushl	%edi
	.cfi_def_cfa_offset 12
	.cfi_offset 7, -12
	pushl	%esi
	.cfi_def_cfa_offset 16
	.cfi_offset 6, -16
	pushl	%ebx
	.cfi_def_cfa_offset 20
	.cfi_offset 3, -20
	call	__x86.get_pc_thunk.bx
	addl	$_GLOBAL_OFFSET_TABLE_, %ebx
	subl	$204, %esp
	.cfi_def_cfa_offset 224
	.loc 1 526 0
	movl	%gs:20, %eax
	movl	%eax, 188(%esp)
	xorl	%eax, %eax
	.loc 1 533 0
	leal	52(%esp), %eax
	movl	%eax, 12(%esp)
	leal	48(%esp), %eax
	movl	%eax, 8(%esp)
	.loc 1 528 0
	movl	$0, 52(%esp)
.LVL51:
	.loc 1 533 0
	leal	.LC9@GOTOFF(%ebx), %eax
	movl	%eax, 4(%esp)
	movl	228(%esp), %eax
	movl	%eax, (%esp)
	call	PyArg_ParseTuple@PLT
.LVL52:
	testl	%eax, %eax
	je	.L158
	.loc 1 536 0
	call	PyDict_New@PLT
.LVL53:
	.loc 1 537 0
	testl	%eax, %eax
	.loc 1 536 0
	movl	%eax, 28(%esp)
.LVL54:
	.loc 1 537 0
	je	.L158
.LBB29:
.LBB30:
	.loc 1 429 0 discriminator 1
	movl	_Py_re_syntax@GOT(%ebx), %eax
.LVL55:
.LBE30:
.LBE29:
	.loc 1 537 0 discriminator 1
	movl	48(%esp), %edi
.LVL56:
.LBB46:
.LBB42:
	.loc 1 429 0 discriminator 1
	movl	(%eax), %eax
	.loc 1 431 0 discriminator 1
	movl	%edi, (%esp)
	.loc 1 429 0 discriminator 1
	movl	%eax, 20(%esp)
.LVL57:
	.loc 1 431 0 discriminator 1
	call	PyString_AsString@PLT
.LVL58:
	testl	%eax, %eax
	movl	%eax, %ebp
.LVL59:
	je	.L121
	.loc 1 434 0
	movl	%edi, (%esp)
	call	PyString_Size@PLT
.LVL60:
	testl	%eax, %eax
	js	.L121
	.loc 1 437 0
	leal	0(%ebp,%eax), %esi
.LVL61:
	.loc 1 440 0
	cmpl	%esi, %ebp
	je	.L160
	.loc 1 445 0
	movl	%eax, 4(%esp)
	movl	$0, (%esp)
	call	PyString_FromStringAndSize@PLT
.LVL62:
	testl	%eax, %eax
	movl	%eax, 56(%esp)
	je	.L121
	movl	%eax, (%esp)
	call	PyString_AsString@PLT
.LVL63:
	testl	%eax, %eax
	je	.L121
	.loc 1 449 0
	cmpl	%esi, %ebp
	jnb	.L125
	.loc 1 429 0
	movl	20(%esp), %edi
.LVL64:
	.loc 1 449 0
	xorl	%edx, %edx
	movl	$0, 32(%esp)
	.loc 1 429 0
	andl	$1, %edi
	movl	%edi, 24(%esp)
	jmp	.L93
.LVL65:
	.p2align 4,,7
	.p2align 3
.L94:
	.loc 1 491 0
	cmpb	$91, %cl
	je	.L161
	.loc 1 502 0
	cmpb	$92, %cl
	jne	.L95
.LVL66:
	.loc 1 504 0
	movb	$92, (%eax)
	.loc 1 505 0
	addl	$1, %ebp
.LVL67:
	.loc 1 504 0
	addl	$1, %eax
.LVL68:
	.loc 1 503 0
	movl	$1, %edx
.LVL69:
.L112:
	.loc 1 449 0
	cmpl	%ebp, %esi
	jbe	.L125
.LVL70:
.L93:
	.loc 1 450 0
	movzbl	0(%ebp), %ecx
	cmpb	$40, %cl
	jne	.L94
	movl	24(%esp), %edi
	xorl	$1, %edi
	cmpl	%edi, %edx
	je	.L162
.L95:
.LVL71:
	.loc 1 509 0
	movb	%cl, (%eax)
	.loc 1 510 0
	addl	$1, %ebp
.LVL72:
	.loc 1 509 0
	addl	$1, %eax
.LVL73:
	.loc 1 508 0
	xorl	%edx, %edx
	jmp	.L112
.LVL74:
.L171:
	movl	%edx, %eax
	movl	%ebp, %edx
	movl	%eax, %ebp
.LVL75:
.L104:
.LBB31:
.LBB32:
	.loc 1 474 0
	subl	$1, (%edx)
	je	.L163
.LVL76:
.L105:
	.loc 1 475 0
	testl	%ebp, %ebp
	je	.L107
	subl	$1, 0(%ebp)
	je	.L164
.L107:
	.loc 1 476 0
	movl	56(%esp), %eax
	testl	%eax, %eax
	je	.L121
	subl	$1, (%eax)
	jne	.L121
.LVL77:
.L159:
.LBE32:
.LBE31:
	.loc 1 515 0
	movl	56(%esp), %eax
	movl	4(%eax), %edx
	movl	%eax, (%esp)
	call	*24(%edx)
.LVL78:
	.p2align 4,,7
	.p2align 3
.L121:
.LBE42:
.LBE46:
	.loc 1 538 0
	movl	28(%esp), %edx
	movl	(%edx), %eax
	movl	%eax, 20(%esp)
	subl	$1, %eax
	testl	%eax, %eax
	movl	%eax, (%edx)
	jne	.L158
	.loc 1 538 0 is_stmt 0 discriminator 1
	movl	28(%esp), %edx
	movl	4(%edx), %eax
	movl	%edx, (%esp)
	call	*24(%eax)
.LVL79:
	.p2align 4,,7
	.p2align 3
.L158:
	.loc 1 539 0 is_stmt 1 discriminator 1
	xorl	%eax, %eax
.LVL80:
.L87:
	.loc 1 544 0
	movl	188(%esp), %edx
	xorl	%gs:20, %edx
	jne	.L165
	addl	$204, %esp
	.cfi_remember_state
	.cfi_def_cfa_offset 20
	popl	%ebx
	.cfi_restore 3
	.cfi_def_cfa_offset 16
	popl	%esi
	.cfi_restore 6
	.cfi_def_cfa_offset 12
	popl	%edi
	.cfi_restore 7
	.cfi_def_cfa_offset 8
	popl	%ebp
	.cfi_restore 5
	.cfi_def_cfa_offset 4
	ret
.LVL81:
	.p2align 4,,7
	.p2align 3
.L161:
	.cfi_restore_state
.LBB47:
.LBB43:
	.loc 1 491 0
	testl	%edx, %edx
	jne	.L95
.LVL82:
	.loc 1 492 0
	movb	$91, (%eax)
	.loc 1 494 0
	movzbl	1(%ebp), %ecx
	.loc 1 493 0
	leal	1(%ebp), %edi
	movl	%edi, 20(%esp)
.LVL83:
	.loc 1 494 0
	leal	2(%eax), %edi
.LVL84:
	movb	%cl, 1(%eax)
.LVL85:
	.loc 1 495 0
	movl	20(%esp), %ecx
	cmpl	%ecx, %esi
	jbe	.L92
	cmpb	$93, 1(%ebp)
	jne	.L118
	jmp	.L117
.LVL86:
	.p2align 4,,7
	.p2align 3
.L167:
	cmpb	$93, (%ecx)
	.p2align 4,,4
	je	.L166
.L118:
	.loc 1 496 0
	addl	$1, %ecx
.LVL87:
	.loc 1 497 0
	movzbl	(%ecx), %eax
	addl	$1, %edi
.LVL88:
	.loc 1 495 0
	cmpl	%esi, %ecx
	.loc 1 497 0
	movb	%al, -1(%edi)
	.loc 1 495 0
	jne	.L167
.LVL89:
.L92:
	.loc 1 514 0
	movl	56(%esp), %eax
	movl	%eax, (%esp)
	call	PyString_AsString@PLT
.LVL90:
	testl	%eax, %eax
	je	.L168
	.loc 1 519 0
	subl	%eax, %edi
	leal	56(%esp), %eax
.LVL91:
	movl	%edi, 4(%esp)
	movl	%eax, (%esp)
	call	_PyString_Resize@PLT
.LVL92:
	.loc 1 520 0
	movl	56(%esp), %esi
.LVL93:
.LBE43:
.LBE47:
	.loc 1 537 0
	testl	%esi, %esi
	je	.L121
.L91:
	.loc 1 541 0
	movl	28(%esp), %eax
	movl	52(%esp), %edx
	movl	%eax, 4(%esp)
	movl	48(%esp), %eax
	movl	%eax, (%esp)
	movl	%esi, %eax
	call	newregexobject
.LVL94:
	.loc 1 542 0
	subl	$1, (%esi)
	jne	.L87
	.loc 1 542 0 is_stmt 0 discriminator 1
	movl	4(%esi), %edx
	movl	%eax, 20(%esp)
	movl	%esi, (%esp)
	call	*24(%edx)
.LVL95:
	movl	20(%esp), %eax
	jmp	.L87
.LVL96:
	.p2align 4,,7
	.p2align 3
.L162:
.LBB48:
.LBB44:
.LBB37:
	.loc 1 454 0 is_stmt 1
	leal	1(%eax), %edi
.LVL97:
	movb	$40, (%eax)
	.loc 1 455 0
	leal	1(%ebp), %eax
	cmpl	%eax, %esi
	movl	%eax, 20(%esp)
.LVL98:
	jbe	.L92
	.loc 1 453 0
	addl	$1, 32(%esp)
.LVL99:
	.loc 1 455 0
	cmpb	$60, 1(%ebp)
	je	.L169
.LVL100:
.L97:
	.loc 1 454 0
	movl	%edi, %eax
	movl	20(%esp), %ebp
	xorl	%edx, %edx
	jmp	.L93
.LVL101:
	.p2align 4,,7
	.p2align 3
.L166:
	movl	%ecx, 20(%esp)
.L117:
.LBE37:
	.loc 1 500 0
	movl	20(%esp), %ebp
	movl	%edi, %eax
	addl	$1, %ebp
.LVL102:
	jmp	.L112
.LVL103:
.L160:
	.loc 1 441 0
	addl	$1, (%edi)
	movl	%edi, %esi
.LVL104:
	jmp	.L91
.LVL105:
.L169:
.LBB38:
	.loc 1 458 0
	leal	2(%ebp), %ecx
	cmpl	%ecx, %esi
	jbe	.L92
	movzbl	2(%ebp), %edx
	cmpb	$62, %dl
	je	.L97
	movl	%ecx, 44(%esp)
	movl	%edx, 36(%esp)
.LVL106:
	call	__ctype_b_loc@PLT
.LVL107:
	movl	36(%esp), %edx
	movl	44(%esp), %ecx
	movl	%edi, 36(%esp)
	movl	(%eax), %eax
	movl	%eax, %ebp
	leal	60(%esp), %eax
.LVL108:
	movl	%eax, 40(%esp)
	jmp	.L123
.LVL109:
	.p2align 4,,7
	.p2align 3
.L114:
	.loc 1 463 0
	movzbl	(%ecx), %edx
	cmpb	$62, %dl
	je	.L170
.L123:
	.loc 1 484 0
	movzbl	%dl, %edi
	testb	$8, 0(%ebp,%edi,2)
	jne	.L113
	cmpb	$95, %dl
	jne	.L154
.L113:
	.loc 1 488 0
	addl	$1, %ecx
.LVL110:
	addl	$1, %eax
.LVL111:
	.loc 1 462 0
	cmpl	%esi, %ecx
	.loc 1 488 0
	movb	%dl, -1(%eax)
	.loc 1 462 0
	jne	.L114
	movl	36(%esp), %edi
	jmp	.L92
.LVL112:
.L168:
.LBE38:
	.loc 1 515 0
	movl	56(%esp), %edx
	subl	$1, (%edx)
	jne	.L121
	jmp	.L159
.LVL113:
.L170:
.LBB39:
.LBB33:
	.loc 1 466 0
	movb	$0, (%eax)
	.loc 1 467 0
	movl	40(%esp), %eax
.LVL114:
	movl	%ecx, 44(%esp)
	movl	36(%esp), %edi
.LVL115:
	movl	%eax, (%esp)
	call	PyString_FromString@PLT
.LVL116:
	movl	%eax, %ebp
.LVL117:
	.loc 1 468 0
	movl	32(%esp), %eax
.LVL118:
	movl	%eax, (%esp)
	call	PyInt_FromLong@PLT
.LVL119:
	.loc 1 469 0
	testl	%eax, %eax
	.loc 1 468 0
	movl	%eax, %edx
.LVL120:
	.loc 1 469 0
	je	.L100
	testl	%ebp, %ebp
	je	.L100
	.loc 1 471 0
	movl	%eax, 8(%esp)
	movl	%eax, 20(%esp)
	movl	28(%esp), %eax
.LVL121:
	movl	%ebp, 4(%esp)
	movl	%eax, (%esp)
	call	PyDict_SetItem@PLT
.LVL122:
	.loc 1 470 0
	movl	20(%esp), %edx
	movl	44(%esp), %ecx
	testl	%eax, %eax
	jne	.L171
	.loc 1 479 0
	subl	$1, 0(%ebp)
	je	.L172
.LVL123:
.L110:
	.loc 1 480 0
	subl	$1, (%edx)
	je	.L173
.L111:
	.loc 1 481 0
	leal	1(%ecx), %ebp
.LVL124:
.LBE33:
	.loc 1 454 0
	movl	%edi, %eax
	.loc 1 452 0
	xorl	%edx, %edx
	jmp	.L112
.LVL125:
.L154:
	movl	36(%esp), %edi
	jmp	.L97
.LVL126:
.L173:
.LBB34:
	.loc 1 480 0
	movl	4(%edx), %eax
	movl	%ecx, 20(%esp)
	movl	%edx, (%esp)
	call	*24(%eax)
.LVL127:
	movl	20(%esp), %ecx
	jmp	.L111
.LVL128:
.L172:
	.loc 1 479 0
	movl	4(%ebp), %eax
	movl	%edx, 36(%esp)
.LVL129:
	movl	%ecx, 20(%esp)
.LVL130:
	movl	%ebp, (%esp)
	call	*24(%eax)
.LVL131:
	movl	36(%esp), %edx
	movl	20(%esp), %ecx
	jmp	.L110
.LVL132:
.L125:
.LBE34:
.LBE39:
	.loc 1 449 0
	movl	%eax, %edi
	jmp	.L92
.LVL133:
.L100:
	movl	%edx, %eax
.LVL134:
	movl	%ebp, %edx
.LVL135:
.LBB40:
.LBB35:
	.loc 1 474 0
	testl	%edx, %edx
	movl	%eax, %ebp
.LVL136:
	jne	.L104
	jmp	.L105
.LVL137:
.L165:
.LBE35:
.LBE40:
.LBE44:
.LBE48:
	.loc 1 544 0
	call	__stack_chk_fail_local
.LVL138:
.L163:
.LBB49:
.LBB45:
.LBB41:
.LBB36:
	.loc 1 474 0
	movl	4(%edx), %eax
	movl	%edx, (%esp)
	call	*24(%eax)
.LVL139:
	jmp	.L105
.L164:
	.loc 1 475 0
	movl	4(%ebp), %eax
	movl	%ebp, (%esp)
	call	*24(%eax)
.LVL140:
	.p2align 4,,4
	jmp	.L107
.LBE36:
.LBE41:
.LBE45:
.LBE49:
	.cfi_endproc
.LFE152:
	.size	regex_symcomp, .-regex_symcomp
	.p2align 4,,15
	.type	reg_dealloc, @function
reg_dealloc:
.LFB142:
	.loc 1 35 0
	.cfi_startproc
.LVL141:
	pushl	%esi
	.cfi_def_cfa_offset 8
	.cfi_offset 6, -8
	pushl	%ebx
	.cfi_def_cfa_offset 12
	.cfi_offset 3, -12
	subl	$20, %esp
	.cfi_def_cfa_offset 32
	movl	32(%esp), %esi
	call	__x86.get_pc_thunk.bx
	addl	$_GLOBAL_OFFSET_TABLE_, %ebx
	.loc 1 36 0
	movl	8(%esi), %eax
	testl	%eax, %eax
	je	.L175
	.loc 1 37 0
	movl	%eax, (%esp)
	call	free@PLT
.LVL142:
.L175:
	.loc 1 38 0
	movl	1096(%esi), %eax
	testl	%eax, %eax
	je	.L177
	.loc 1 38 0 is_stmt 0 discriminator 1
	movl	(%eax), %ecx
	leal	-1(%ecx), %edx
	testl	%edx, %edx
	movl	%edx, (%eax)
	je	.L195
.L177:
	.loc 1 39 0 is_stmt 1
	movl	1100(%esi), %eax
	testl	%eax, %eax
	je	.L180
	.loc 1 39 0 is_stmt 0 discriminator 1
	movl	(%eax), %ecx
	leal	-1(%ecx), %edx
	testl	%edx, %edx
	movl	%edx, (%eax)
	je	.L196
.L180:
	.loc 1 40 0 is_stmt 1
	movl	1104(%esi), %eax
	testl	%eax, %eax
	je	.L183
	.loc 1 40 0 is_stmt 0 discriminator 1
	movl	(%eax), %ecx
	leal	-1(%ecx), %edx
	testl	%edx, %edx
	movl	%edx, (%eax)
	je	.L197
.L183:
	.loc 1 41 0 is_stmt 1
	movl	1108(%esi), %eax
	testl	%eax, %eax
	je	.L186
	.loc 1 41 0 is_stmt 0 discriminator 1
	movl	(%eax), %ecx
	leal	-1(%ecx), %edx
	testl	%edx, %edx
	movl	%edx, (%eax)
	je	.L198
.L186:
	.loc 1 42 0 is_stmt 1
	movl	1112(%esi), %eax
	testl	%eax, %eax
	je	.L189
	.loc 1 42 0 is_stmt 0 discriminator 1
	movl	(%eax), %ecx
	leal	-1(%ecx), %edx
	testl	%edx, %edx
	movl	%edx, (%eax)
	jne	.L189
	movl	1112(%esi), %eax
	movl	4(%eax), %edx
	movl	%eax, (%esp)
	call	*24(%edx)
.LVL143:
.L189:
	.loc 1 43 0 is_stmt 1
	movl	%esi, (%esp)
	call	PyObject_Free@PLT
.LVL144:
	.loc 1 44 0
	addl	$20, %esp
	.cfi_remember_state
	.cfi_def_cfa_offset 12
	popl	%ebx
	.cfi_restore 3
	.cfi_def_cfa_offset 8
	popl	%esi
	.cfi_restore 6
	.cfi_def_cfa_offset 4
	ret
	.p2align 4,,7
	.p2align 3
.L198:
	.cfi_restore_state
	.loc 1 41 0 discriminator 1
	movl	1108(%esi), %eax
	movl	4(%eax), %edx
	movl	%eax, (%esp)
	call	*24(%edx)
.LVL145:
	jmp	.L186
	.p2align 4,,7
	.p2align 3
.L197:
	.loc 1 40 0 discriminator 1
	movl	1104(%esi), %eax
	movl	4(%eax), %edx
	movl	%eax, (%esp)
	call	*24(%edx)
.LVL146:
	jmp	.L183
	.p2align 4,,7
	.p2align 3
.L196:
	.loc 1 39 0 discriminator 1
	movl	1100(%esi), %eax
	movl	4(%eax), %edx
	movl	%eax, (%esp)
	call	*24(%edx)
.LVL147:
	jmp	.L180
	.p2align 4,,7
	.p2align 3
.L195:
	.loc 1 38 0 discriminator 1
	movl	1096(%esi), %eax
	movl	4(%eax), %edx
	movl	%eax, (%esp)
	call	*24(%edx)
.LVL148:
	jmp	.L177
	.cfi_endproc
.LFE142:
	.size	reg_dealloc, .-reg_dealloc
	.section	.rodata.str1.1
.LC10:
	.string	"last"
.LC11:
	.string	"regs"
.LC12:
	.string	"(ii)"
.LC13:
	.string	"translate"
.LC14:
	.string	"groupindex"
.LC15:
	.string	"realpat"
.LC16:
	.string	"givenpat"
.LC17:
	.string	"__members__"
	.text
	.p2align 4,,15
	.type	regobj_getattr, @function
regobj_getattr:
.LFB148:
	.loc 1 266 0
	.cfi_startproc
.LVL149:
	pushl	%ebp
	.cfi_def_cfa_offset 8
	.cfi_offset 5, -8
.LBB73:
	.loc 1 267 0
	movl	$5, %ecx
.LBE73:
	.loc 1 266 0
	pushl	%edi
	.cfi_def_cfa_offset 12
	.cfi_offset 7, -12
	pushl	%esi
	.cfi_def_cfa_offset 16
	.cfi_offset 6, -16
	pushl	%ebx
	.cfi_def_cfa_offset 20
	.cfi_offset 3, -20
	call	__x86.get_pc_thunk.bx
	addl	$_GLOBAL_OFFSET_TABLE_, %ebx
	subl	$28, %esp
	.cfi_def_cfa_offset 48
.LBB74:
	.loc 1 267 0
	movl	52(%esp), %esi
	leal	.LC11@GOTOFF(%ebx), %edi
.LBE74:
	repz cmpsb
.LVL150:
	jne	.L200
	.loc 1 268 0
	movl	48(%esp), %eax
	movl	1100(%eax), %edx
	testl	%edx, %edx
	je	.L220
.LVL151:
.LBB75:
.LBB76:
	.loc 1 53 0
	movl	filler.9451@GOTOFF(%ebx), %eax
.LVL152:
	testl	%eax, %eax
	je	.L203
.L206:
	.loc 1 58 0
	movl	$100, (%esp)
	call	PyTuple_New@PLT
.LVL153:
	.loc 1 59 0
	testl	%eax, %eax
	.loc 1 58 0
	movl	%eax, %edi
.LVL154:
	.loc 1 59 0
	je	.L260
	movl	48(%esp), %eax
.LVL155:
	xorl	%ebp, %ebp
	leal	40(%eax), %esi
.LBB77:
	.loc 1 71 0
	leal	.LC12@GOTOFF(%ebx), %eax
	movl	%eax, 12(%esp)
	jmp	.L213
.LVL156:
	.p2align 4,,7
	.p2align 3
.L262:
	.loc 1 66 0
	cmpl	$-1, %ecx
	jne	.L208
	.loc 1 67 0
	movl	filler.9451@GOTOFF(%ebx), %eax
.LVL157:
	.loc 1 68 0
	addl	$1, (%eax)
.LVL158:
.L209:
	.loc 1 72 0
	movl	%eax, 8(%esp)
	movl	%ebp, 4(%esp)
	movl	%edi, (%esp)
	call	PyTuple_SetItem@PLT
.LVL159:
	testl	%eax, %eax
	js	.L228
.LBE77:
	.loc 1 62 0
	addl	$1, %ebp
.LVL160:
	addl	$4, %esi
	cmpl	$100, %ebp
	je	.L232
.LVL161:
.L213:
.LBB78:
	.loc 1 64 0
	movl	400(%esi), %eax
	.loc 1 63 0
	movl	(%esi), %ecx
.LVL162:
	.loc 1 66 0
	cmpl	$-1, %eax
	je	.L262
.L208:
	.loc 1 71 0
	movl	%eax, 8(%esp)
	movl	12(%esp), %eax
.LVL163:
	movl	%ecx, 4(%esp)
	movl	%eax, (%esp)
	call	Py_BuildValue@PLT
.LVL164:
	.loc 1 72 0
	testl	%eax, %eax
	jne	.L209
.LVL165:
.L228:
.LBE78:
.LBE76:
.LBE75:
.LBB80:
.LBB81:
.LBB82:
.LBB83:
	.loc 1 330 0
	subl	$1, (%edi)
	je	.L263
.L260:
	.loc 1 331 0
	xorl	%eax, %eax
.L265:
.LBE83:
.LBE82:
.LBE81:
.LBE80:
	.loc 1 338 0
	addl	$28, %esp
	.cfi_remember_state
	.cfi_def_cfa_offset 20
	popl	%ebx
	.cfi_restore 3
	.cfi_def_cfa_offset 16
	popl	%esi
	.cfi_restore 6
	.cfi_def_cfa_offset 12
	popl	%edi
	.cfi_restore 7
	.cfi_def_cfa_offset 8
	popl	%ebp
	.cfi_restore 5
	.cfi_def_cfa_offset 4
	ret
	.p2align 4,,7
	.p2align 3
.L200:
	.cfi_restore_state
.LVL166:
.LBB101:
	.loc 1 274 0
	movl	52(%esp), %esi
	leal	.LC10@GOTOFF(%ebx), %ebp
	movl	$5, %ecx
	movl	%ebp, %edi
.LBE101:
	repz cmpsb
	jne	.L214
	.loc 1 275 0
	movl	48(%esp), %eax
	movl	1100(%eax), %eax
	testl	%eax, %eax
	je	.L220
	.loc 1 279 0
	addl	$1, (%eax)
	.loc 1 280 0
	movl	48(%esp), %eax
	movl	1100(%eax), %eax
.LVL167:
.L202:
	.loc 1 338 0
	addl	$28, %esp
	.cfi_remember_state
	.cfi_def_cfa_offset 20
	popl	%ebx
	.cfi_restore 3
	.cfi_def_cfa_offset 16
	popl	%esi
	.cfi_restore 6
	.cfi_def_cfa_offset 12
	popl	%edi
	.cfi_restore 7
	.cfi_def_cfa_offset 8
	popl	%ebp
	.cfi_restore 5
	.cfi_def_cfa_offset 4
	ret
.LVL168:
	.p2align 4,,7
	.p2align 3
.L214:
	.cfi_restore_state
.LBB102:
.LBB97:
.LBB88:
	.loc 1 282 0
	movl	52(%esp), %esi
	movl	$10, %ecx
	leal	.LC13@GOTOFF(%ebx), %edi
.LBE88:
	repz cmpsb
	je	.L264
.LVL169:
.LBB89:
	.loc 1 290 0
	movl	52(%esp), %esi
	movl	$11, %ecx
	leal	.LC14@GOTOFF(%ebx), %edi
.LBE89:
	repz cmpsb
	jne	.L219
	.loc 1 291 0
	movl	48(%esp), %eax
	movl	1104(%eax), %eax
	testl	%eax, %eax
	je	.L220
	.loc 1 295 0
	addl	$1, (%eax)
	.loc 1 296 0
	movl	48(%esp), %eax
	movl	1104(%eax), %eax
	jmp	.L202
.LVL170:
	.p2align 4,,7
	.p2align 3
.L220:
	.loc 1 284 0
	movl	_Py_NoneStruct@GOT(%ebx), %eax
	addl	$1, (%eax)
.LBE97:
.LBE102:
	.loc 1 338 0
	addl	$28, %esp
	.cfi_remember_state
	.cfi_def_cfa_offset 20
	popl	%ebx
	.cfi_restore 3
	.cfi_def_cfa_offset 16
	popl	%esi
	.cfi_restore 6
	.cfi_def_cfa_offset 12
	popl	%edi
	.cfi_restore 7
	.cfi_def_cfa_offset 8
	popl	%ebp
	.cfi_restore 5
	.cfi_def_cfa_offset 4
	ret
.LVL171:
	.p2align 4,,7
	.p2align 3
.L264:
	.cfi_restore_state
.LBB103:
.LBB98:
	.loc 1 283 0
	movl	48(%esp), %eax
	movl	1096(%eax), %eax
	testl	%eax, %eax
	je	.L220
	.loc 1 287 0
	addl	$1, (%eax)
	.loc 1 288 0
	movl	48(%esp), %eax
	movl	1096(%eax), %eax
.LBE98:
.LBE103:
	.loc 1 338 0
	addl	$28, %esp
	.cfi_remember_state
	.cfi_def_cfa_offset 20
	popl	%ebx
	.cfi_restore 3
	.cfi_def_cfa_offset 16
	popl	%esi
	.cfi_restore 6
	.cfi_def_cfa_offset 12
	popl	%edi
	.cfi_restore 7
	.cfi_def_cfa_offset 8
	popl	%ebp
	.cfi_restore 5
	.cfi_def_cfa_offset 4
	ret
.LVL172:
	.p2align 4,,7
	.p2align 3
.L263:
	.cfi_restore_state
.LBB104:
.LBB99:
.LBB90:
.LBB84:
	.loc 1 330 0
	movl	4(%edi), %eax
	movl	%edi, (%esp)
	call	*24(%eax)
.LVL173:
	.loc 1 331 0
	xorl	%eax, %eax
	jmp	.L265
.LVL174:
	.p2align 4,,7
	.p2align 3
.L219:
.LBE84:
.LBE90:
.LBB91:
	.loc 1 298 0
	movl	52(%esp), %esi
	movl	$8, %ecx
	leal	.LC15@GOTOFF(%ebx), %edi
.LBE91:
	repz cmpsb
	je	.L266
.LVL175:
.LBB92:
	.loc 1 306 0
	movl	52(%esp), %esi
	movl	$9, %ecx
	leal	.LC16@GOTOFF(%ebx), %edi
.LBE92:
	repz cmpsb
	jne	.L222
	.loc 1 307 0
	movl	48(%esp), %eax
	movl	1108(%eax), %eax
	testl	%eax, %eax
	je	.L220
	.loc 1 311 0
	addl	$1, (%eax)
	.loc 1 312 0
	movl	48(%esp), %eax
	movl	1108(%eax), %eax
	jmp	.L202
.LVL176:
	.p2align 4,,7
	.p2align 3
.L232:
.LBB93:
	.loc 1 327 0
	movl	%edi, %eax
	jmp	.L202
.LVL177:
	.p2align 4,,7
	.p2align 3
.L203:
.LBE93:
.LBE99:
.LBE104:
.LBB105:
.LBB79:
	.loc 1 54 0
	leal	.LC12@GOTOFF(%ebx), %eax
	movl	$-1, 8(%esp)
	movl	$-1, 4(%esp)
	movl	%eax, (%esp)
	call	Py_BuildValue@PLT
.LVL178:
	.loc 1 55 0
	testl	%eax, %eax
	.loc 1 54 0
	movl	%eax, filler.9451@GOTOFF(%ebx)
	.loc 1 55 0
	jne	.L206
.LBE79:
.LBE105:
.LBB106:
.LBB100:
.LBB94:
.LBB85:
	.loc 1 331 0
	xorl	%eax, %eax
	jmp	.L265
.LVL179:
	.p2align 4,,7
	.p2align 3
.L266:
.LBE85:
.LBE94:
	.loc 1 299 0
	movl	48(%esp), %eax
	movl	1112(%eax), %eax
	testl	%eax, %eax
	je	.L220
	.loc 1 303 0
	addl	$1, (%eax)
	.loc 1 304 0
	movl	48(%esp), %eax
	movl	1112(%eax), %eax
	jmp	.L202
.LVL180:
.L222:
.LBB95:
	.loc 1 314 0
	movl	52(%esp), %esi
	movl	$12, %ecx
	leal	.LC17@GOTOFF(%ebx), %edi
.LBE95:
	repz cmpsb
	jne	.L223
.LVL181:
.LBB96:
	.loc 1 323 0
	movl	$6, (%esp)
	call	PyList_New@PLT
.LVL182:
	testl	%eax, %eax
	movl	%eax, %edi
.LVL183:
	je	.L260
	xorl	%esi, %esi
	jmp	.L230
.LVL184:
	.p2align 4,,7
	.p2align 3
.L225:
.LBB86:
	.loc 1 329 0
	movl	%eax, 8(%esp)
	movl	%esi, 4(%esp)
	movl	%edi, (%esp)
	call	PyList_SetItem@PLT
.LVL185:
	testl	%eax, %eax
	js	.L228
	.loc 1 333 0
	addl	$1, %esi
.LVL186:
.LBE86:
	.loc 1 327 0
	movl	members@GOTOFF(%ebx,%esi,4), %ebp
	testl	%ebp, %ebp
	je	.L232
.LVL187:
.L230:
.LBB87:
	.loc 1 328 0
	movl	%ebp, (%esp)
	call	PyString_FromString@PLT
.LVL188:
	.loc 1 329 0
	testl	%eax, %eax
	jne	.L225
	.p2align 4,,3
	jmp	.L228
.LVL189:
.L223:
.LBE87:
.LBE96:
	.loc 1 337 0
	movl	52(%esp), %eax
	movl	%eax, 8(%esp)
	movl	48(%esp), %eax
	movl	%eax, 4(%esp)
	leal	reg_methods@GOTOFF(%ebx), %eax
	movl	%eax, (%esp)
	call	Py_FindMethod@PLT
.LVL190:
	jmp	.L202
.LBE100:
.LBE106:
	.cfi_endproc
.LFE148:
	.size	regobj_getattr, .-regobj_getattr
	.section	.rodata.str1.1
.LC18:
	.string	"S|S:compile"
	.text
	.p2align 4,,15
	.type	update_cache, @function
update_cache:
.LFB153:
	.loc 1 552 0
	.cfi_startproc
.LVL191:
	pushl	%edi
	.cfi_def_cfa_offset 8
	.cfi_offset 7, -8
	movl	%eax, %edi
	pushl	%esi
	.cfi_def_cfa_offset 12
	.cfi_offset 6, -12
	pushl	%ebx
	.cfi_def_cfa_offset 16
	.cfi_offset 3, -16
	call	__x86.get_pc_thunk.bx
	addl	$_GLOBAL_OFFSET_TABLE_, %ebx
	subl	$48, %esp
	.cfi_def_cfa_offset 64
	.loc 1 553 0
	movl	%eax, 4(%esp)
	movl	$1, (%esp)
	call	PyTuple_Pack@PLT
.LVL192:
	.loc 1 556 0
	testl	%eax, %eax
	.loc 1 553 0
	movl	%eax, %esi
.LVL193:
	.loc 1 556 0
	je	.L277
	.loc 1 559 0
	movl	cache_pat@GOTOFF(%ebx), %eax
.LVL194:
	cmpl	%eax, %edi
	je	.L278
	.loc 1 560 0
	testl	%eax, %eax
	je	.L271
	.loc 1 560 0 is_stmt 0 discriminator 1
	movl	(%eax), %ecx
	leal	-1(%ecx), %edx
	testl	%edx, %edx
	movl	%edx, (%eax)
	je	.L283
.L271:
	.loc 1 562 0 is_stmt 1
	movl	cache_prog@GOTOFF(%ebx), %eax
	.loc 1 561 0
	movl	$0, cache_pat@GOTOFF(%ebx)
	.loc 1 562 0
	testl	%eax, %eax
	je	.L274
	.loc 1 562 0 is_stmt 0 discriminator 1
	movl	(%eax), %ecx
	leal	-1(%ecx), %edx
	testl	%edx, %edx
	movl	%edx, (%eax)
	je	.L284
.L274:
.LVL195:
.LBB109:
.LBB110:
	.loc 1 415 0 is_stmt 1
	leal	44(%esp), %eax
	movl	%eax, 12(%esp)
	leal	40(%esp), %eax
	movl	%eax, 8(%esp)
	leal	.LC18@GOTOFF(%ebx), %eax
	movl	%eax, 4(%esp)
	movl	%esi, (%esp)
	.loc 1 412 0
	movl	$0, 40(%esp)
	.loc 1 413 0
	movl	$0, 44(%esp)
	.loc 1 415 0
	call	PyArg_ParseTuple@PLT
.LVL196:
	testl	%eax, %eax
	je	.L276
	.loc 1 417 0
	movl	40(%esp), %eax
	movl	44(%esp), %edx
	movl	$0, 4(%esp)
	movl	%eax, (%esp)
	call	newregexobject
.LVL197:
.LBE110:
.LBE109:
	.loc 1 564 0
	testl	%eax, %eax
	.loc 1 563 0
	movl	%eax, cache_prog@GOTOFF(%ebx)
	.loc 1 564 0
	je	.L279
	.loc 1 569 0
	addl	$1, (%edi)
	.loc 1 554 0
	xorl	%eax, %eax
	.loc 1 568 0
	movl	%edi, cache_pat@GOTOFF(%ebx)
.LVL198:
.L269:
	.loc 1 572 0
	movl	(%esi), %ecx
	leal	-1(%ecx), %edx
	testl	%edx, %edx
	movl	%edx, (%esi)
	je	.L285
.LVL199:
.L281:
	.loc 1 574 0
	addl	$48, %esp
	.cfi_remember_state
	.cfi_def_cfa_offset 16
	popl	%ebx
	.cfi_restore 3
	.cfi_def_cfa_offset 12
	popl	%esi
	.cfi_restore 6
	.cfi_def_cfa_offset 8
.LVL200:
	popl	%edi
	.cfi_restore 7
	.cfi_def_cfa_offset 4
.LVL201:
	ret
.LVL202:
	.p2align 4,,7
	.p2align 3
.L285:
	.cfi_restore_state
	.loc 1 572 0 discriminator 1
	movl	4(%esi), %edx
	movl	%eax, 28(%esp)
	movl	%esi, (%esp)
	call	*24(%edx)
.LVL203:
	movl	28(%esp), %eax
	.loc 1 574 0 discriminator 1
	addl	$48, %esp
	.cfi_remember_state
	.cfi_def_cfa_offset 16
	popl	%ebx
	.cfi_restore 3
	.cfi_def_cfa_offset 12
	popl	%esi
	.cfi_restore 6
	.cfi_def_cfa_offset 8
.LVL204:
	popl	%edi
	.cfi_restore 7
	.cfi_def_cfa_offset 4
.LVL205:
	ret
.LVL206:
	.p2align 4,,7
	.p2align 3
.L284:
	.cfi_restore_state
	.loc 1 562 0 discriminator 1
	movl	4(%eax), %edx
	movl	%eax, (%esp)
	call	*24(%edx)
.LVL207:
	jmp	.L274
	.p2align 4,,7
	.p2align 3
.L283:
	.loc 1 560 0 discriminator 1
	movl	4(%eax), %edx
	movl	%eax, (%esp)
	call	*24(%edx)
.LVL208:
	.p2align 4,,4
	jmp	.L271
.LVL209:
	.p2align 4,,7
	.p2align 3
.L276:
	.loc 1 563 0
	movl	$0, cache_prog@GOTOFF(%ebx)
	.loc 1 565 0
	movl	$-1, %eax
	jmp	.L269
.LVL210:
	.p2align 4,,7
	.p2align 3
.L278:
	.loc 1 554 0
	xorl	%eax, %eax
	jmp	.L269
.LVL211:
.L277:
	.loc 1 557 0
	movl	$-1, %eax
.LVL212:
	jmp	.L281
.LVL213:
.L279:
	.loc 1 565 0
	orl	$-1, %eax
	jmp	.L269
	.cfi_endproc
.LFE153:
	.size	update_cache, .-update_cache
	.section	.rodata.str1.1
.LC19:
	.string	"SS:search"
.LC20:
	.string	"(S)"
	.text
	.p2align 4,,15
	.type	regex_search, @function
regex_search:
.LFB155:
	.loc 1 596 0
	.cfi_startproc
.LVL214:
	pushl	%esi
	.cfi_def_cfa_offset 8
	.cfi_offset 6, -8
	pushl	%ebx
	.cfi_def_cfa_offset 12
	.cfi_offset 3, -12
	call	__x86.get_pc_thunk.bx
	addl	$_GLOBAL_OFFSET_TABLE_, %ebx
	subl	$52, %esp
	.cfi_def_cfa_offset 64
	.loc 1 600 0
	leal	44(%esp), %eax
	movl	%eax, 12(%esp)
	leal	40(%esp), %eax
	movl	%eax, 8(%esp)
	leal	.LC19@GOTOFF(%ebx), %eax
	movl	%eax, 4(%esp)
	movl	68(%esp), %eax
	movl	%eax, (%esp)
	call	PyArg_ParseTuple@PLT
.LVL215:
	testl	%eax, %eax
	je	.L289
	.loc 1 602 0
	movl	40(%esp), %eax
	call	update_cache
.LVL216:
	testl	%eax, %eax
	js	.L289
	.loc 1 605 0
	movl	44(%esp), %eax
	movl	%eax, 4(%esp)
	leal	.LC20@GOTOFF(%ebx), %eax
	movl	%eax, (%esp)
	call	Py_BuildValue@PLT
.LVL217:
	testl	%eax, %eax
	movl	%eax, %esi
.LVL218:
	je	.L289
	.loc 1 607 0
	movl	%eax, 4(%esp)
	movl	cache_prog@GOTOFF(%ebx), %eax
.LVL219:
	movl	%eax, (%esp)
	call	regobj_search
.LVL220:
	.loc 1 608 0
	movl	(%esi), %ecx
	leal	-1(%ecx), %edx
	testl	%edx, %edx
	movl	%edx, (%esi)
	je	.L295
	.loc 1 610 0
	addl	$52, %esp
	.cfi_remember_state
	.cfi_def_cfa_offset 12
	popl	%ebx
	.cfi_restore 3
	.cfi_def_cfa_offset 8
	popl	%esi
	.cfi_restore 6
	.cfi_def_cfa_offset 4
.LVL221:
	ret
.LVL222:
	.p2align 4,,7
	.p2align 3
.L289:
	.cfi_restore_state
	addl	$52, %esp
	.cfi_remember_state
	.cfi_def_cfa_offset 12
	.loc 1 601 0
	xorl	%eax, %eax
	.loc 1 610 0
	popl	%ebx
	.cfi_restore 3
	.cfi_def_cfa_offset 8
	popl	%esi
	.cfi_restore 6
	.cfi_def_cfa_offset 4
	ret
.LVL223:
	.p2align 4,,7
	.p2align 3
.L295:
	.cfi_restore_state
	.loc 1 608 0 discriminator 1
	movl	4(%esi), %edx
	movl	%eax, 28(%esp)
	movl	%esi, (%esp)
	call	*24(%edx)
.LVL224:
	movl	28(%esp), %eax
	.loc 1 610 0 discriminator 1
	addl	$52, %esp
	.cfi_def_cfa_offset 12
	popl	%ebx
	.cfi_restore 3
	.cfi_def_cfa_offset 8
	popl	%esi
	.cfi_restore 6
	.cfi_def_cfa_offset 4
.LVL225:
	ret
	.cfi_endproc
.LFE155:
	.size	regex_search, .-regex_search
	.section	.rodata.str1.1
.LC21:
	.string	"SS:match"
	.text
	.p2align 4,,15
	.type	regex_match, @function
regex_match:
.LFB154:
	.loc 1 578 0
	.cfi_startproc
.LVL226:
	pushl	%esi
	.cfi_def_cfa_offset 8
	.cfi_offset 6, -8
	pushl	%ebx
	.cfi_def_cfa_offset 12
	.cfi_offset 3, -12
	call	__x86.get_pc_thunk.bx
	addl	$_GLOBAL_OFFSET_TABLE_, %ebx
	subl	$52, %esp
	.cfi_def_cfa_offset 64
	.loc 1 582 0
	leal	44(%esp), %eax
	movl	%eax, 12(%esp)
	leal	40(%esp), %eax
	movl	%eax, 8(%esp)
	leal	.LC21@GOTOFF(%ebx), %eax
	movl	%eax, 4(%esp)
	movl	68(%esp), %eax
	movl	%eax, (%esp)
	call	PyArg_ParseTuple@PLT
.LVL227:
	testl	%eax, %eax
	je	.L299
	.loc 1 584 0
	movl	40(%esp), %eax
	call	update_cache
.LVL228:
	testl	%eax, %eax
	js	.L299
	.loc 1 587 0
	movl	44(%esp), %eax
	movl	%eax, 4(%esp)
	leal	.LC20@GOTOFF(%ebx), %eax
	movl	%eax, (%esp)
	call	Py_BuildValue@PLT
.LVL229:
	testl	%eax, %eax
	movl	%eax, %esi
.LVL230:
	je	.L299
	.loc 1 589 0
	movl	%eax, 4(%esp)
	movl	cache_prog@GOTOFF(%ebx), %eax
.LVL231:
	movl	%eax, (%esp)
	call	regobj_match
.LVL232:
	.loc 1 590 0
	movl	(%esi), %ecx
	leal	-1(%ecx), %edx
	testl	%edx, %edx
	movl	%edx, (%esi)
	je	.L305
	.loc 1 592 0
	addl	$52, %esp
	.cfi_remember_state
	.cfi_def_cfa_offset 12
	popl	%ebx
	.cfi_restore 3
	.cfi_def_cfa_offset 8
	popl	%esi
	.cfi_restore 6
	.cfi_def_cfa_offset 4
.LVL233:
	ret
.LVL234:
	.p2align 4,,7
	.p2align 3
.L299:
	.cfi_restore_state
	addl	$52, %esp
	.cfi_remember_state
	.cfi_def_cfa_offset 12
	.loc 1 583 0
	xorl	%eax, %eax
	.loc 1 592 0
	popl	%ebx
	.cfi_restore 3
	.cfi_def_cfa_offset 8
	popl	%esi
	.cfi_restore 6
	.cfi_def_cfa_offset 4
	ret
.LVL235:
	.p2align 4,,7
	.p2align 3
.L305:
	.cfi_restore_state
	.loc 1 590 0 discriminator 1
	movl	4(%esi), %edx
	movl	%eax, 28(%esp)
	movl	%esi, (%esp)
	call	*24(%edx)
.LVL236:
	movl	28(%esp), %eax
	.loc 1 592 0 discriminator 1
	addl	$52, %esp
	.cfi_def_cfa_offset 12
	popl	%ebx
	.cfi_restore 3
	.cfi_def_cfa_offset 8
	popl	%esi
	.cfi_restore 6
	.cfi_def_cfa_offset 4
.LVL237:
	ret
	.cfi_endproc
.LFE154:
	.size	regex_match, .-regex_match
	.section	.rodata.str1.1
.LC22:
	.string	"not enough arguments"
	.section	.rodata.str1.4
	.align 4
.LC23:
	.string	"group() group name doesn't exist"
	.section	.rodata.str1.1
.LC24:
	.string	"group() index out of range"
	.section	.rodata.str1.4
	.align 4
.LC25:
	.string	"group() only valid after successful match/search"
	.text
	.p2align 4,,15
	.type	regobj_group, @function
regobj_group:
.LFB147:
	.loc 1 205 0
	.cfi_startproc
.LVL238:
	pushl	%ebp
	.cfi_def_cfa_offset 8
	.cfi_offset 5, -8
	pushl	%edi
	.cfi_def_cfa_offset 12
	.cfi_offset 7, -12
	pushl	%esi
	.cfi_def_cfa_offset 16
	.cfi_offset 6, -16
	pushl	%ebx
	.cfi_def_cfa_offset 20
	.cfi_offset 3, -20
	subl	$44, %esp
	.cfi_def_cfa_offset 64
	call	__x86.get_pc_thunk.bx
	addl	$_GLOBAL_OFFSET_TABLE_, %ebx
	.loc 1 206 0
	movl	68(%esp), %eax
	.loc 1 205 0
	movl	64(%esp), %edi
	.loc 1 206 0
	movl	%eax, (%esp)
	call	PyTuple_Size@PLT
.LVL239:
	.loc 1 210 0
	testl	%eax, %eax
	.loc 1 206 0
	movl	%eax, 20(%esp)
.LVL240:
	.loc 1 210 0
	js	.L378
	.loc 1 212 0
	je	.L379
	.loc 1 216 0
	cmpl	$1, 20(%esp)
	je	.L380
	.loc 1 226 0
	movl	20(%esp), %eax
	movl	%eax, (%esp)
	call	PyTuple_New@PLT
.LVL241:
	testl	%eax, %eax
	movl	%eax, 24(%esp)
.LVL242:
	je	.L378
	xorl	%esi, %esi
	jmp	.L338
.LVL243:
	.p2align 4,,7
	.p2align 3
.L342:
.LBB117:
.LBB118:
.LBB119:
	.loc 1 192 0
	movl	_Py_NoneStruct@GOT(%ebx), %eax
	addl	$1, (%eax)
.LVL244:
.L337:
.LBE119:
.LBE118:
	.loc 1 237 0
	movl	%eax, 8(%esp)
	movl	24(%esp), %eax
	movl	%esi, 4(%esp)
	movl	%eax, (%esp)
	call	PyTuple_SetItem@PLT
.LVL245:
	testl	%eax, %eax
	js	.L339
.LBE117:
	.loc 1 229 0
	addl	$1, %esi
.LVL246:
	cmpl	%esi, 20(%esp)
	jle	.L381
.LVL247:
.L338:
.LBB128:
	.loc 1 230 0
	movl	68(%esp), %eax
	movl	%esi, 4(%esp)
	movl	%eax, (%esp)
	call	PyTuple_GetItem@PLT
.LVL248:
	.loc 1 233 0
	testl	%eax, %eax
	.loc 1 230 0
	movl	%eax, %ebp
.LVL249:
	.loc 1 233 0
	je	.L339
.LVL250:
.LBB124:
.LBB120:
	.loc 1 167 0
	movl	4(%eax), %eax
.LVL251:
	cmpl	PyString_Type@GOT(%ebx), %eax
	je	.L328
	movl	PyString_Type@GOT(%ebx), %ecx
	movl	%eax, (%esp)
	movl	%ecx, 4(%esp)
	call	PyType_IsSubtype@PLT
.LVL252:
	testl	%eax, %eax
	je	.L329
.L328:
	.loc 1 168 0
	movl	1104(%edi), %eax
	testl	%eax, %eax
	je	.L326
	movl	%ebp, 4(%esp)
	movl	%eax, (%esp)
	call	PyDict_GetItem@PLT
.LVL253:
	testl	%eax, %eax
	movl	%eax, %ebp
.LVL254:
	je	.L326
.LVL255:
.L329:
	.loc 1 176 0
	movl	%ebp, (%esp)
	call	PyInt_AsLong@PLT
.LVL256:
	.loc 1 177 0
	cmpl	$-1, %eax
	.loc 1 176 0
	movl	%eax, %edx
.LVL257:
	.loc 1 177 0
	je	.L382
	.loc 1 180 0
	cmpl	$99, %eax
	ja	.L333
	.loc 1 184 0
	movl	1100(%edi), %eax
.LVL258:
	testl	%eax, %eax
	je	.L383
	leal	(%edi,%edx,4), %edx
.LVL259:
	.loc 1 191 0
	movl	440(%edx), %ecx
	.loc 1 189 0
	movl	40(%edx), %ebp
.LVL260:
	.loc 1 191 0
	testl	%ecx, %ecx
	js	.L342
	movl	%ebp, %edx
	shrl	$31, %edx
	testb	%dl, %dl
	jne	.L342
	.loc 1 196 0
	movl	%eax, (%esp)
	movl	%ecx, 28(%esp)
	call	PyString_AsString@PLT
.LVL261:
	testl	%eax, %eax
	je	.L339
	.loc 1 199 0
	movl	28(%esp), %ecx
	subl	%ebp, %ecx
	addl	%eax, %ebp
.LVL262:
	movl	%ecx, 4(%esp)
	movl	%ebp, (%esp)
	call	PyString_FromStringAndSize@PLT
.LVL263:
.LBE120:
.LBE124:
	.loc 1 235 0
	testl	%eax, %eax
	jne	.L337
	jmp	.L339
.LVL264:
	.p2align 4,,7
	.p2align 3
.L382:
.LBB125:
.LBB121:
	.loc 1 177 0
	.p2align 4,,9
	call	PyErr_Occurred@PLT
.LVL265:
	testl	%eax, %eax
	.p2align 4,,6
	jne	.L339
.L333:
	.loc 1 181 0
	leal	.LC24@GOTOFF(%ebx), %eax
	movl	%eax, 4(%esp)
	movl	RegexError@GOTOFF(%ebx), %eax
	movl	%eax, (%esp)
	call	PyErr_SetString@PLT
.LVL266:
.L339:
.LBE121:
.LBE125:
.LBE128:
	.loc 1 243 0
	movl	24(%esp), %edi
	movl	(%edi), %eax
	movl	%eax, 20(%esp)
.LVL267:
	subl	$1, %eax
	testl	%eax, %eax
	movl	%eax, (%edi)
	je	.L384
.LVL268:
.L378:
	.loc 1 244 0 discriminator 1
	xorl	%eax, %eax
.L308:
	.loc 1 245 0
	addl	$44, %esp
	.cfi_remember_state
	.cfi_def_cfa_offset 20
	popl	%ebx
	.cfi_restore 3
	.cfi_def_cfa_offset 16
	popl	%esi
	.cfi_restore 6
	.cfi_def_cfa_offset 12
	popl	%edi
	.cfi_restore 7
	.cfi_def_cfa_offset 8
	popl	%ebp
	.cfi_restore 5
	.cfi_def_cfa_offset 4
	ret
.LVL269:
	.p2align 4,,7
	.p2align 3
.L380:
	.cfi_restore_state
.LBB129:
	.loc 1 218 0
	movl	68(%esp), %eax
.LVL270:
	movl	$0, 4(%esp)
	movl	%eax, (%esp)
	call	PyTuple_GetItem@PLT
.LVL271:
	.loc 1 219 0
	testl	%eax, %eax
	.loc 1 218 0
	movl	%eax, %esi
.LVL272:
	.loc 1 219 0
	je	.L378
.LVL273:
.LBB130:
.LBB131:
	.loc 1 167 0
	movl	4(%eax), %eax
.LVL274:
	movl	PyString_Type@GOT(%ebx), %edx
	cmpl	%edx, %eax
	je	.L315
	movl	%edx, 4(%esp)
	movl	%eax, (%esp)
	call	PyType_IsSubtype@PLT
.LVL275:
	testl	%eax, %eax
	je	.L316
.L315:
	.loc 1 168 0
	movl	1104(%edi), %eax
	testl	%eax, %eax
	je	.L313
	movl	%esi, 4(%esp)
	movl	%eax, (%esp)
	call	PyDict_GetItem@PLT
.LVL276:
	testl	%eax, %eax
	movl	%eax, %esi
.LVL277:
	je	.L313
.LVL278:
.L316:
	.loc 1 176 0
	movl	%esi, (%esp)
	call	PyInt_AsLong@PLT
.LVL279:
	.loc 1 177 0
	cmpl	$-1, %eax
	.loc 1 176 0
	movl	%eax, %edx
.LVL280:
	.loc 1 177 0
	je	.L385
	.loc 1 180 0
	cmpl	$99, %eax
	ja	.L320
	.loc 1 184 0
	movl	1100(%edi), %eax
.LVL281:
	testl	%eax, %eax
	je	.L386
	leal	(%edi,%edx,4), %edx
.LVL282:
	.loc 1 191 0
	movl	440(%edx), %edi
.LVL283:
	.loc 1 189 0
	movl	40(%edx), %esi
.LVL284:
	.loc 1 191 0
	testl	%edi, %edi
	jns	.L387
.L341:
	.loc 1 192 0
	movl	_Py_NoneStruct@GOT(%ebx), %eax
	addl	$1, (%eax)
.LBE131:
.LBE130:
.LBE129:
	.loc 1 245 0
	addl	$44, %esp
	.cfi_remember_state
	.cfi_def_cfa_offset 20
	popl	%ebx
	.cfi_restore 3
	.cfi_def_cfa_offset 16
	popl	%esi
	.cfi_restore 6
	.cfi_def_cfa_offset 12
.LVL285:
	popl	%edi
	.cfi_restore 7
	.cfi_def_cfa_offset 8
.LVL286:
	popl	%ebp
	.cfi_restore 5
	.cfi_def_cfa_offset 4
	ret
.LVL287:
	.p2align 4,,7
	.p2align 3
.L384:
	.cfi_restore_state
	.loc 1 243 0 discriminator 1
	movl	4(%edi), %eax
	movl	%edi, (%esp)
	call	*24(%eax)
.LVL288:
	jmp	.L378
.LVL289:
	.p2align 4,,7
	.p2align 3
.L326:
.LBB136:
.LBB126:
.LBB122:
	.loc 1 171 0
	leal	.LC23@GOTOFF(%ebx), %eax
	movl	%eax, 4(%esp)
	movl	RegexError@GOTOFF(%ebx), %eax
	movl	%eax, (%esp)
	call	PyErr_SetString@PLT
.LVL290:
	jmp	.L339
.LVL291:
	.p2align 4,,7
	.p2align 3
.L381:
.LBE122:
.LBE126:
.LBE136:
	movl	24(%esp), %eax
	.loc 1 245 0
	addl	$44, %esp
	.cfi_remember_state
	.cfi_def_cfa_offset 20
	popl	%ebx
	.cfi_restore 3
	.cfi_def_cfa_offset 16
	popl	%esi
	.cfi_restore 6
	.cfi_def_cfa_offset 12
.LVL292:
	popl	%edi
	.cfi_restore 7
	.cfi_def_cfa_offset 8
.LVL293:
	popl	%ebp
	.cfi_restore 5
	.cfi_def_cfa_offset 4
	ret
.LVL294:
	.p2align 4,,7
	.p2align 3
.L387:
	.cfi_restore_state
.LBB137:
.LBB134:
.LBB132:
	.loc 1 191 0
	movl	%esi, %edx
	shrl	$31, %edx
	testb	%dl, %dl
	jne	.L341
	.loc 1 196 0
	movl	%eax, (%esp)
	call	PyString_AsString@PLT
.LVL295:
	testl	%eax, %eax
	je	.L378
	.loc 1 199 0
	subl	%esi, %edi
.LVL296:
	addl	%esi, %eax
.LVL297:
	movl	%edi, 4(%esp)
	movl	%eax, (%esp)
	call	PyString_FromStringAndSize@PLT
.LVL298:
.LBE132:
.LBE134:
	.loc 1 222 0
	jmp	.L308
.LVL299:
.L383:
.LBE137:
.LBB138:
.LBB127:
.LBB123:
	.loc 1 185 0
	leal	.LC25@GOTOFF(%ebx), %eax
	movl	%eax, 4(%esp)
	movl	RegexError@GOTOFF(%ebx), %eax
	movl	%eax, (%esp)
	call	PyErr_SetString@PLT
.LVL300:
	jmp	.L339
.LVL301:
.L379:
.LBE123:
.LBE127:
.LBE138:
	.loc 1 213 0
	leal	.LC22@GOTOFF(%ebx), %eax
.LVL302:
	movl	%eax, 4(%esp)
	movl	PyExc_TypeError@GOT(%ebx), %eax
	movl	(%eax), %eax
	movl	%eax, (%esp)
	call	PyErr_SetString@PLT
.LVL303:
	jmp	.L378
.LVL304:
.L385:
.LBB139:
.LBB135:
.LBB133:
	.loc 1 177 0
	call	PyErr_Occurred@PLT
.LVL305:
	testl	%eax, %eax
	.p2align 4,,6
	jne	.L378
.L320:
	.loc 1 181 0
	leal	.LC24@GOTOFF(%ebx), %eax
.L377:
	movl	%eax, 4(%esp)
	movl	RegexError@GOTOFF(%ebx), %eax
	movl	%eax, (%esp)
	call	PyErr_SetString@PLT
.LVL306:
	.loc 1 182 0
	xorl	%eax, %eax
	jmp	.L308
.L313:
	.loc 1 171 0
	leal	.LC23@GOTOFF(%ebx), %eax
	jmp	.L377
.LVL307:
.L386:
	.loc 1 185 0
	leal	.LC25@GOTOFF(%ebx), %edx
.LVL308:
	movl	%edx, 4(%esp)
	movl	RegexError@GOTOFF(%ebx), %edx
	movl	%eax, 20(%esp)
.LVL309:
	movl	%edx, (%esp)
	call	PyErr_SetString@PLT
.LVL310:
	movl	20(%esp), %eax
	jmp	.L308
.LBE133:
.LBE135:
.LBE139:
	.cfi_endproc
.LFE147:
	.size	regobj_group, .-regobj_group
	.p2align 4,,15
	.type	regex_compile, @function
regex_compile:
.LFB150:
	.loc 1 411 0
	.cfi_startproc
.LVL311:
	pushl	%ebp
	.cfi_def_cfa_offset 8
	.cfi_offset 5, -8
	.loc 1 416 0
	xorl	%ebp, %ebp
	.loc 1 411 0
	pushl	%edi
	.cfi_def_cfa_offset 12
	.cfi_offset 7, -12
	pushl	%esi
	.cfi_def_cfa_offset 16
	.cfi_offset 6, -16
	pushl	%ebx
	.cfi_def_cfa_offset 20
	.cfi_offset 3, -20
	call	__x86.get_pc_thunk.bx
	addl	$_GLOBAL_OFFSET_TABLE_, %ebx
	subl	$60, %esp
	.cfi_def_cfa_offset 80
	.loc 1 415 0
	leal	36(%esp), %eax
	movl	%eax, 12(%esp)
	leal	32(%esp), %eax
	movl	%eax, 8(%esp)
	.loc 1 412 0
	movl	$0, 32(%esp)
	.loc 1 413 0
	movl	$0, 36(%esp)
	.loc 1 415 0
	leal	.LC18@GOTOFF(%ebx), %eax
	movl	%eax, 4(%esp)
	movl	84(%esp), %eax
	movl	%eax, (%esp)
	call	PyArg_ParseTuple@PLT
.LVL312:
	testl	%eax, %eax
	je	.L389
	.loc 1 417 0
	movl	32(%esp), %esi
.LVL313:
.LBB143:
.LBB144:
	.loc 1 368 0
	leal	44(%esp), %eax
	movl	%eax, 12(%esp)
	leal	40(%esp), %eax
.LBE144:
.LBE143:
	.loc 1 417 0
	movl	36(%esp), %edi
.LVL314:
.LBB149:
.LBB147:
	.loc 1 368 0
	movl	%eax, 8(%esp)
	leal	.LC6@GOTOFF(%ebx), %eax
	movl	%eax, 4(%esp)
	movl	%esi, (%esp)
	call	PyArg_Parse@PLT
.LVL315:
	testl	%eax, %eax
	je	.L414
	.loc 1 371 0
	testl	%edi, %edi
	je	.L392
	movl	%edi, (%esp)
	call	PyString_Size@PLT
.LVL316:
	cmpl	$256, %eax
	jne	.L415
.L392:
	.loc 1 376 0
	leal	Regextype@GOTOFF(%ebx), %eax
	movl	%eax, (%esp)
	call	_PyObject_New@PLT
.LVL317:
	.loc 1 377 0
	testl	%eax, %eax
	.loc 1 376 0
	movl	%eax, %edx
.LVL318:
	.loc 1 377 0
	je	.L414
.LBB145:
	.loc 1 379 0
	movl	$0, 8(%eax)
	.loc 1 382 0
	testl	%edi, %edi
	.loc 1 380 0
	movl	$0, 12(%eax)
	.loc 1 381 0
	leal	840(%eax), %eax
.LVL319:
	movl	%eax, 20(%edx)
	.loc 1 382 0
	je	.L394
	.loc 1 383 0
	movl	%edi, (%esp)
	movl	%edx, 28(%esp)
	call	PyString_AsString@PLT
.LVL320:
	movl	28(%esp), %edx
	.loc 1 384 0
	testl	%eax, %eax
	.loc 1 383 0
	movl	%eax, 24(%edx)
	.loc 1 384 0
	je	.L395
	.loc 1 386 0
	addl	$1, (%edi)
.LVL321:
.L396:
	.loc 1 397 0
	leal	8(%edx), %eax
	.loc 1 390 0
	movl	%edi, 1096(%edx)
	.loc 1 391 0
	movl	$0, 1100(%edx)
	.loc 1 392 0
	movl	$0, 1104(%edx)
	.loc 1 393 0
	addl	$1, (%esi)
	.loc 1 394 0
	movl	%esi, 1112(%edx)
	.loc 1 395 0
	addl	$1, (%esi)
	.loc 1 396 0
	movl	%esi, 1108(%edx)
	.loc 1 397 0
	movl	%eax, 8(%esp)
	movl	44(%esp), %eax
	movl	%edx, 28(%esp)
	movl	%eax, 4(%esp)
	movl	40(%esp), %eax
	movl	%eax, (%esp)
	call	_Py_re_compile_pattern@PLT
.LVL322:
	.loc 1 398 0
	movl	28(%esp), %edx
	movl	%edx, %ebp
	testl	%eax, %eax
	je	.L389
	.loc 1 399 0
	movl	%eax, 4(%esp)
	movl	RegexError@GOTOFF(%ebx), %eax
.LVL323:
	movl	%eax, (%esp)
	call	PyErr_SetString@PLT
.LVL324:
	movl	28(%esp), %edx
.L395:
.LBE145:
	.loc 1 405 0
	subl	$1, (%edx)
	je	.L416
.L414:
	.loc 1 406 0
	xorl	%ebp, %ebp
.LVL325:
.L389:
.LBE147:
.LBE149:
	.loc 1 418 0
	addl	$60, %esp
	.cfi_remember_state
	.cfi_def_cfa_offset 20
	movl	%ebp, %eax
	popl	%ebx
	.cfi_restore 3
	.cfi_def_cfa_offset 16
	popl	%esi
	.cfi_restore 6
	.cfi_def_cfa_offset 12
	popl	%edi
	.cfi_restore 7
	.cfi_def_cfa_offset 8
	popl	%ebp
	.cfi_restore 5
	.cfi_def_cfa_offset 4
	ret
.LVL326:
	.p2align 4,,7
	.p2align 3
.L394:
	.cfi_restore_state
.LBB150:
.LBB148:
.LBB146:
	.loc 1 389 0
	movl	$0, 24(%edx)
	jmp	.L396
.LVL327:
	.p2align 4,,7
	.p2align 3
.L416:
.LBE146:
	.loc 1 405 0
	movl	4(%edx), %eax
	.loc 1 406 0
	xorl	%ebp, %ebp
	.loc 1 405 0
	movl	%edx, (%esp)
	call	*24(%eax)
.LVL328:
	jmp	.L389
	.p2align 4,,7
	.p2align 3
.L415:
	.loc 1 372 0
	leal	.LC8@GOTOFF(%ebx), %eax
	movl	%eax, 4(%esp)
	movl	RegexError@GOTOFF(%ebx), %eax
	movl	%eax, (%esp)
	call	PyErr_SetString@PLT
.LVL329:
	jmp	.L389
.LBE148:
.LBE150:
	.cfi_endproc
.LFE150:
	.size	regex_compile, .-regex_compile
	.section	.rodata.str1.1
.LC26:
	.string	"regex"
	.section	.rodata.str1.4
	.align 4
.LC27:
	.string	"the regex module is deprecated; please use the re module"
	.section	.rodata.str1.1
.LC28:
	.string	"regex.error"
.LC29:
	.string	"error"
.LC30:
	.string	"casefold"
	.text
	.p2align 4,,15
	.globl	initregex
	.type	initregex, @function
initregex:
.LFB158:
	.loc 1 646 0
	.cfi_startproc
	pushl	%ebp
	.cfi_def_cfa_offset 8
	.cfi_offset 5, -8
	pushl	%edi
	.cfi_def_cfa_offset 12
	.cfi_offset 7, -12
	pushl	%esi
	.cfi_def_cfa_offset 16
	.cfi_offset 6, -16
	pushl	%ebx
	.cfi_def_cfa_offset 20
	.cfi_offset 3, -20
	call	__x86.get_pc_thunk.bx
	addl	$_GLOBAL_OFFSET_TABLE_, %ebx
	subl	$44, %esp
	.cfi_def_cfa_offset 64
	.loc 1 654 0
	movl	$1012, 16(%esp)
	movl	$0, 12(%esp)
	movl	$0, 8(%esp)
	.loc 1 652 0
	movl	PyType_Type@GOT(%ebx), %eax
	movl	%eax, 4+Regextype@GOTOFF(%ebx)
	.loc 1 654 0
	leal	regex_global_methods@GOTOFF(%ebx), %eax
	movl	%eax, 4(%esp)
	leal	.LC26@GOTOFF(%ebx), %eax
	movl	%eax, (%esp)
	call	Py_InitModule4@PLT
.LVL330:
	.loc 1 655 0
	testl	%eax, %eax
	je	.L417
	.loc 1 657 0
	movl	%eax, (%esp)
	call	PyModule_GetDict@PLT
.LVL331:
	movl	%eax, 24(%esp)
	movl	%eax, %edi
.LVL332:
	.loc 1 659 0
	leal	.LC27@GOTOFF(%ebx), %eax
.LVL333:
	movl	%eax, 4(%esp)
	movl	PyExc_DeprecationWarning@GOT(%ebx), %eax
	movl	(%eax), %eax
	movl	%eax, (%esp)
	call	PyErr_Warn@PLT
.LVL334:
	testl	%eax, %eax
	js	.L417
	.loc 1 665 0
	leal	.LC28@GOTOFF(%ebx), %eax
	movl	$0, 8(%esp)
	movl	$0, 4(%esp)
	movl	%eax, (%esp)
	call	PyErr_NewException@PLT
.LVL335:
	.loc 1 666 0
	testl	%eax, %eax
	.loc 1 665 0
	movl	%eax, RegexError@GOTOFF(%ebx)
.LVL336:
	.loc 1 666 0
	je	.L417
	.loc 1 666 0 is_stmt 0 discriminator 1
	movl	%eax, 8(%esp)
	leal	.LC29@GOTOFF(%ebx), %eax
.LVL337:
	movl	%eax, 4(%esp)
	movl	%edi, (%esp)
	call	PyDict_SetItemString@PLT
.LVL338:
	testl	%eax, %eax
	je	.L436
.L419:
.LVL339:
.L417:
	.loc 1 690 0 is_stmt 1
	addl	$44, %esp
	.cfi_remember_state
	.cfi_def_cfa_offset 20
	popl	%ebx
	.cfi_restore 3
	.cfi_def_cfa_offset 16
	popl	%esi
	.cfi_restore 6
	.cfi_def_cfa_offset 12
	popl	%edi
	.cfi_restore 7
	.cfi_def_cfa_offset 8
	popl	%ebp
	.cfi_restore 5
	.cfi_def_cfa_offset 4
	ret
.LVL340:
	.p2align 4,,7
	.p2align 3
.L436:
	.cfi_restore_state
	.loc 1 670 0
	movl	$256, 4(%esp)
	movl	$0, (%esp)
	call	PyString_FromStringAndSize@PLT
.LVL341:
	testl	%eax, %eax
	movl	%eax, 28(%esp)
.LVL342:
	je	.L417
	.loc 1 673 0
	movl	%eax, (%esp)
	call	PyString_AsString@PLT
.LVL343:
	testl	%eax, %eax
	movl	%eax, %edi
.LVL344:
	je	.L417
	call	__ctype_b_loc@PLT
.LVL345:
	xorl	%esi, %esi
	movl	%eax, %ebp
	jmp	.L424
.LVL346:
	.p2align 4,,7
	.p2align 3
.L438:
.LBB151:
.LBB152:
.LBB153:
	.file 2 "/usr/include/ctype.h"
	.loc 2 217 0
	call	__ctype_tolower_loc@PLT
.LVL347:
	movl	(%eax), %eax
.LVL348:
.LBE153:
.LBE152:
.LBE151:
	.loc 1 678 0
	movl	(%eax,%esi,4), %eax
.LVL349:
	movb	%al, (%edi,%esi)
	.loc 1 676 0
	addl	$1, %esi
.LVL350:
	cmpl	$256, %esi
	je	.L437
.LVL351:
.L424:
	.loc 1 677 0
	movl	0(%ebp), %eax
	testb	$1, 1(%eax,%esi,2)
	jne	.L438
	.loc 1 680 0
	movl	%esi, %eax
	movb	%al, (%edi,%esi)
	.loc 1 676 0
	addl	$1, %esi
.LVL352:
	cmpl	$256, %esi
	jne	.L424
.L437:
	.loc 1 682 0
	leal	.LC30@GOTOFF(%ebx), %eax
	movl	28(%esp), %edi
.LVL353:
	movl	%eax, 4(%esp)
	movl	24(%esp), %eax
	movl	%edi, 8(%esp)
	movl	%eax, (%esp)
	call	PyDict_SetItemString@PLT
.LVL354:
	testl	%eax, %eax
	js	.L417
	.loc 1 684 0
	movl	(%edi), %eax
	movl	%eax, 24(%esp)
.LVL355:
	subl	$1, %eax
	testl	%eax, %eax
	movl	%eax, (%edi)
	je	.L439
.L425:
	.loc 1 686 0
	call	PyErr_Occurred@PLT
.LVL356:
	jmp	.L417
.L439:
	.loc 1 684 0 discriminator 1
	movl	28(%esp), %ecx
	movl	4(%ecx), %eax
	movl	%ecx, (%esp)
	call	*24(%eax)
.LVL357:
	jmp	.L425
	.cfi_endproc
.LFE158:
	.size	initregex, .-initregex
	.local	filler.9451
	.comm	filler.9451,4,4
	.section	.rodata.str1.1
.LC31:
	.string	"compile"
.LC32:
	.string	"symcomp"
.LC33:
	.string	"match"
.LC34:
	.string	"search"
.LC35:
	.string	"set_syntax"
.LC36:
	.string	"get_syntax"
	.section	.data.rel.local,"aw",@progbits
	.align 32
	.type	regex_global_methods, @object
	.size	regex_global_methods, 112
regex_global_methods:
	.long	.LC31
	.long	regex_compile
	.long	1
	.zero	4
	.long	.LC32
	.long	regex_symcomp
	.long	1
	.zero	4
	.long	.LC33
	.long	regex_match
	.long	1
	.zero	4
	.long	.LC34
	.long	regex_search
	.long	1
	.zero	4
	.long	.LC35
	.long	regex_set_syntax
	.long	1
	.zero	4
	.long	.LC36
	.long	regex_get_syntax
	.long	4
	.zero	4
	.long	0
	.long	0
	.zero	8
	.local	cache_prog
	.comm	cache_prog,4,4
	.local	cache_pat
	.comm	cache_pat,4,4
	.section	.rodata.str1.1
.LC37:
	.string	"regex.regex"
	.section	.data.rel.local
	.align 32
	.type	Regextype, @object
	.size	Regextype, 192
Regextype:
	.long	1
	.long	0
	.long	0
	.long	.LC37
	.long	1116
	.long	0
	.long	reg_dealloc
	.long	0
	.long	regobj_getattr
	.long	0
	.long	0
	.long	0
	.zero	144
	.section	.data.rel.ro.local,"aw",@progbits
	.align 4
	.type	members, @object
	.size	members, 28
members:
	.long	.LC10
	.long	.LC11
	.long	.LC13
	.long	.LC14
	.long	.LC15
	.long	.LC16
	.long	0
	.section	.rodata.str1.1
.LC38:
	.string	"group"
	.section	.data.rel.local
	.align 32
	.type	reg_methods, @object
	.size	reg_methods, 64
reg_methods:
	.long	.LC33
	.long	regobj_match
	.long	1
	.zero	4
	.long	.LC34
	.long	regobj_search
	.long	1
	.zero	4
	.long	.LC38
	.long	regobj_group
	.long	1
	.zero	4
	.long	0
	.long	0
	.zero	8
	.local	RegexError
	.comm	RegexError,4,4
	.section	.text.__x86.get_pc_thunk.bx,"axG",@progbits,__x86.get_pc_thunk.bx,comdat
	.globl	__x86.get_pc_thunk.bx
	.hidden	__x86.get_pc_thunk.bx
	.type	__x86.get_pc_thunk.bx, @function
__x86.get_pc_thunk.bx:
.LFB161:
	.cfi_startproc
	movl	(%esp), %ebx
	ret
	.cfi_endproc
.LFE161:
	.text
.Letext0:
	.file 3 "/usr/lib/gcc/x86_64-linux-gnu/4.8/include/stddef.h"
	.file 4 "/usr/include/bits/types.h"
	.file 5 "/usr/include/stdio.h"
	.file 6 "/usr/include/libio.h"
	.file 7 "/home/user/Desktop/Python-2.4.5/./Include/object.h"
	.file 8 "/home/user/Desktop/Python-2.4.5/./Include/methodobject.h"
	.file 9 "/home/user/Desktop/Python-2.4.5/./Include/descrobject.h"
	.file 10 "/home/user/Desktop/Python-2.4.5/Modules/regexpr.h"
	.file 11 "/home/user/Desktop/Python-2.4.5/./Include/stringobject.h"
	.file 12 "/home/user/Desktop/Python-2.4.5/./Include/pyerrors.h"
	.file 13 "/home/user/Desktop/Python-2.4.5/./Include/intobject.h"
	.file 14 "/home/user/Desktop/Python-2.4.5/./Include/modsupport.h"
	.file 15 "/home/user/Desktop/Python-2.4.5/./Include/objimpl.h"
	.file 16 "/home/user/Desktop/Python-2.4.5/./Include/dictobject.h"
	.file 17 "/usr/include/stdlib.h"
	.file 18 "/home/user/Desktop/Python-2.4.5/./Include/tupleobject.h"
	.file 19 "/home/user/Desktop/Python-2.4.5/./Include/listobject.h"
	.file 20 "/home/user/Desktop/Python-2.4.5/./Include/moduleobject.h"
	.section	.note.GNU-stack,"",@progbits
