	.file	"inflate.c"
	.section	.text.unlikely,"ax",@progbits
.LCOLDB0:
	.text
.LHOTB0:
	.p2align 4,,15
	.globl	inflateResetKeep
	.type	inflateResetKeep, @function
inflateResetKeep:
.LFB22:
	.cfi_startproc
	movl	4(%esp), %edx
	testl	%edx, %edx
	je	.L5
	movl	28(%edx), %eax
	testl	%eax, %eax
	je	.L5
	movl	8(%eax), %ecx
	movl	$0, 28(%eax)
	movl	$0, 20(%edx)
	movl	$0, 8(%edx)
	movl	$0, 24(%edx)
	testl	%ecx, %ecx
	je	.L3
	andl	$1, %ecx
	movl	%ecx, 48(%edx)
.L3:
	leal	1328(%eax), %edx
	movl	$0, (%eax)
	movl	$0, 4(%eax)
	movl	$0, 12(%eax)
	movl	$32768, 20(%eax)
	movl	$0, 32(%eax)
	movl	$0, 56(%eax)
	movl	$0, 60(%eax)
	movl	%edx, 108(%eax)
	movl	%edx, 80(%eax)
	movl	%edx, 76(%eax)
	movl	$1, 7104(%eax)
	movl	$-1, 7108(%eax)
	xorl	%eax, %eax
	ret
	.p2align 4,,10
	.p2align 3
.L5:
	movl	$-2, %eax
	ret
	.cfi_endproc
.LFE22:
	.size	inflateResetKeep, .-inflateResetKeep
	.section	.text.unlikely
.LCOLDE0:
	.text
.LHOTE0:
	.section	.text.unlikely
.LCOLDB1:
	.text
.LHOTB1:
	.p2align 4,,15
	.globl	inflateReset
	.type	inflateReset, @function
inflateReset:
.LFB23:
	.cfi_startproc
	movl	4(%esp), %edx
	testl	%edx, %edx
	je	.L14
	movl	28(%edx), %eax
	testl	%eax, %eax
	je	.L14
	movl	8(%eax), %ecx
	movl	$0, 40(%eax)
	movl	$0, 44(%eax)
	movl	$0, 48(%eax)
	movl	$0, 28(%eax)
	movl	$0, 20(%edx)
	testl	%ecx, %ecx
	movl	$0, 8(%edx)
	movl	$0, 24(%edx)
	je	.L12
	andl	$1, %ecx
	movl	%ecx, 48(%edx)
.L12:
	leal	1328(%eax), %edx
	movl	$0, (%eax)
	movl	$0, 4(%eax)
	movl	$0, 12(%eax)
	movl	$32768, 20(%eax)
	movl	$0, 32(%eax)
	movl	$0, 56(%eax)
	movl	$0, 60(%eax)
	movl	%edx, 108(%eax)
	movl	%edx, 80(%eax)
	movl	%edx, 76(%eax)
	movl	$1, 7104(%eax)
	movl	$-1, 7108(%eax)
	xorl	%eax, %eax
	ret
	.p2align 4,,10
	.p2align 3
.L14:
	movl	$-2, %eax
	ret
	.cfi_endproc
.LFE23:
	.size	inflateReset, .-inflateReset
	.section	.text.unlikely
.LCOLDE1:
	.text
.LHOTE1:
	.section	.text.unlikely
.LCOLDB2:
	.text
.LHOTB2:
	.p2align 4,,15
	.globl	inflateReset2
	.type	inflateReset2, @function
inflateReset2:
.LFB24:
	.cfi_startproc
	pushl	%ebp
	.cfi_def_cfa_offset 8
	.cfi_offset 5, -8
	pushl	%edi
	.cfi_def_cfa_offset 12
	.cfi_offset 7, -12
	pushl	%esi
	.cfi_def_cfa_offset 16
	.cfi_offset 6, -16
	pushl	%ebx
	.cfi_def_cfa_offset 20
	.cfi_offset 3, -20
	subl	$12, %esp
	.cfi_def_cfa_offset 32
	movl	32(%esp), %esi
	movl	36(%esp), %ebx
	testl	%esi, %esi
	je	.L21
	movl	28(%esi), %edi
	testl	%edi, %edi
	je	.L21
	testl	%ebx, %ebx
	js	.L46
	movl	%ebx, %ebp
	sarl	$4, %ebp
	addl	$1, %ebp
	cmpl	$47, %ebx
	jle	.L47
.L23:
	leal	-8(%ebx), %eax
	cmpl	$7, %eax
	jbe	.L28
	testl	%ebx, %ebx
	jne	.L21
.L28:
	movl	52(%edi), %eax
	testl	%eax, %eax
	je	.L25
	cmpl	36(%edi), %ebx
	je	.L25
	subl	$8, %esp
	.cfi_def_cfa_offset 40
	pushl	%eax
	.cfi_def_cfa_offset 44
	pushl	40(%esi)
	.cfi_def_cfa_offset 48
	call	*36(%esi)
	movl	28(%esi), %eax
	addl	$16, %esp
	.cfi_def_cfa_offset 32
	movl	$0, 52(%edi)
	movl	%ebp, 8(%edi)
	movl	%ebx, 36(%edi)
	testl	%eax, %eax
	jne	.L27
.L21:
	movl	$-2, %eax
	jmp	.L44
	.p2align 4,,10
	.p2align 3
.L25:
	movl	%ebp, 8(%edi)
	movl	%ebx, 36(%edi)
	movl	%edi, %eax
.L27:
	movl	8(%eax), %edx
	movl	$0, 40(%eax)
	movl	$0, 44(%eax)
	movl	$0, 48(%eax)
	movl	$0, 28(%eax)
	movl	$0, 20(%esi)
	testl	%edx, %edx
	movl	$0, 8(%esi)
	movl	$0, 24(%esi)
	jne	.L48
.L26:
	leal	1328(%eax), %edx
	movl	$0, (%eax)
	movl	$0, 4(%eax)
	movl	$0, 12(%eax)
	movl	$32768, 20(%eax)
	movl	$0, 32(%eax)
	movl	$0, 56(%eax)
	movl	$0, 60(%eax)
	movl	%edx, 108(%eax)
	movl	%edx, 80(%eax)
	movl	%edx, 76(%eax)
	movl	$1, 7104(%eax)
	movl	$-1, 7108(%eax)
	xorl	%eax, %eax
.L44:
	addl	$12, %esp
	.cfi_remember_state
	.cfi_def_cfa_offset 20
	popl	%ebx
	.cfi_restore 3
	.cfi_def_cfa_offset 16
	popl	%esi
	.cfi_restore 6
	.cfi_def_cfa_offset 12
	popl	%edi
	.cfi_restore 7
	.cfi_def_cfa_offset 8
	popl	%ebp
	.cfi_restore 5
	.cfi_def_cfa_offset 4
	ret
	.p2align 4,,10
	.p2align 3
.L48:
	.cfi_restore_state
	andl	$1, %edx
	movl	%edx, 48(%esi)
	jmp	.L26
	.p2align 4,,10
	.p2align 3
.L47:
	andl	$15, %ebx
	jmp	.L23
	.p2align 4,,10
	.p2align 3
.L46:
	negl	%ebx
	xorl	%ebp, %ebp
	jmp	.L23
	.cfi_endproc
.LFE24:
	.size	inflateReset2, .-inflateReset2
	.section	.text.unlikely
.LCOLDE2:
	.text
.LHOTE2:
	.section	.text.unlikely
.LCOLDB3:
	.text
.LHOTB3:
	.p2align 4,,15
	.globl	inflateInit2_
	.type	inflateInit2_, @function
inflateInit2_:
.LFB25:
	.cfi_startproc
	pushl	%esi
	.cfi_def_cfa_offset 8
	.cfi_offset 6, -8
	pushl	%ebx
	.cfi_def_cfa_offset 12
	.cfi_offset 3, -12
	subl	$4, %esp
	.cfi_def_cfa_offset 16
	movl	24(%esp), %eax
	movl	16(%esp), %ebx
	movl	20(%esp), %esi
	testl	%eax, %eax
	je	.L64
	cmpb	$49, (%eax)
	jne	.L64
	cmpl	$56, 28(%esp)
	jne	.L64
	testl	%ebx, %ebx
	je	.L65
	movl	32(%ebx), %eax
	movl	$0, 24(%ebx)
	testl	%eax, %eax
	je	.L51
	movl	40(%ebx), %edx
.L52:
	movl	36(%ebx), %ecx
	testl	%ecx, %ecx
	je	.L77
.L53:
	subl	$4, %esp
	.cfi_def_cfa_offset 20
	pushl	$7116
	.cfi_def_cfa_offset 24
	pushl	$1
	.cfi_def_cfa_offset 28
	pushl	%edx
	.cfi_def_cfa_offset 32
	call	*%eax
	addl	$16, %esp
	.cfi_def_cfa_offset 16
	testl	%eax, %eax
	je	.L78
	testl	%esi, %esi
	movl	%eax, 28(%ebx)
	movl	$0, 52(%eax)
	js	.L79
	movl	%esi, %edx
	sarl	$4, %edx
	addl	$1, %edx
	cmpl	$47, %esi
	jg	.L54
	andl	$15, %esi
.L54:
	leal	-8(%esi), %ecx
	cmpl	$7, %ecx
	jbe	.L62
.L81:
	testl	%esi, %esi
	jne	.L80
.L62:
	testl	%edx, %edx
	movl	%edx, 8(%eax)
	movl	%esi, 36(%eax)
	movl	$0, 40(%eax)
	movl	$0, 44(%eax)
	movl	$0, 48(%eax)
	movl	$0, 28(%eax)
	movl	$0, 20(%ebx)
	movl	$0, 8(%ebx)
	movl	$0, 24(%ebx)
	jne	.L58
	.p2align 4,,10
	.p2align 3
.L59:
	leal	1328(%eax), %edx
	movl	$0, (%eax)
	movl	$0, 4(%eax)
	movl	$0, 12(%eax)
	movl	$32768, 20(%eax)
	movl	$0, 32(%eax)
	movl	$0, 56(%eax)
	movl	$0, 60(%eax)
	movl	%edx, 108(%eax)
	movl	%edx, 80(%eax)
	movl	%edx, 76(%eax)
	movl	$1, 7104(%eax)
	movl	$-1, 7108(%eax)
	xorl	%eax, %eax
.L70:
	addl	$4, %esp
	.cfi_remember_state
	.cfi_def_cfa_offset 12
	popl	%ebx
	.cfi_restore 3
	.cfi_def_cfa_offset 8
	popl	%esi
	.cfi_restore 6
	.cfi_def_cfa_offset 4
	ret
.L58:
	.cfi_restore_state
	andl	$1, %edx
	movl	%edx, 48(%ebx)
	jmp	.L59
.L79:
	negl	%esi
	xorl	%edx, %edx
	leal	-8(%esi), %ecx
	cmpl	$7, %ecx
	ja	.L81
	jmp	.L62
	.p2align 4,,10
	.p2align 3
.L77:
	movl	$zcfree, 36(%ebx)
	jmp	.L53
	.p2align 4,,10
	.p2align 3
.L51:
	movl	$zcalloc, 32(%ebx)
	movl	$0, 40(%ebx)
	xorl	%edx, %edx
	movl	$zcalloc, %eax
	jmp	.L52
	.p2align 4,,10
	.p2align 3
.L64:
	addl	$4, %esp
	.cfi_remember_state
	.cfi_def_cfa_offset 12
	movl	$-6, %eax
	popl	%ebx
	.cfi_restore 3
	.cfi_def_cfa_offset 8
	popl	%esi
	.cfi_restore 6
	.cfi_def_cfa_offset 4
	ret
	.p2align 4,,10
	.p2align 3
.L80:
	.cfi_restore_state
	subl	$8, %esp
	.cfi_def_cfa_offset 24
	pushl	%eax
	.cfi_def_cfa_offset 28
	pushl	40(%ebx)
	.cfi_def_cfa_offset 32
	call	*36(%ebx)
	movl	$0, 28(%ebx)
	addl	$16, %esp
	.cfi_def_cfa_offset 16
	movl	$-2, %eax
	jmp	.L70
	.p2align 4,,10
	.p2align 3
.L78:
	movl	$-4, %eax
	jmp	.L70
.L65:
	movl	$-2, %eax
	jmp	.L70
	.cfi_endproc
.LFE25:
	.size	inflateInit2_, .-inflateInit2_
	.section	.text.unlikely
.LCOLDE3:
	.text
.LHOTE3:
	.section	.text.unlikely
.LCOLDB4:
	.text
.LHOTB4:
	.p2align 4,,15
	.globl	inflateInit_
	.type	inflateInit_, @function
inflateInit_:
.LFB26:
	.cfi_startproc
	pushl	%ebx
	.cfi_def_cfa_offset 8
	.cfi_offset 3, -8
	subl	$8, %esp
	.cfi_def_cfa_offset 16
	movl	20(%esp), %eax
	movl	16(%esp), %ebx
	testl	%eax, %eax
	je	.L91
	cmpb	$49, (%eax)
	jne	.L91
	cmpl	$56, 24(%esp)
	jne	.L91
	testl	%ebx, %ebx
	je	.L92
	movl	32(%ebx), %eax
	movl	$0, 24(%ebx)
	testl	%eax, %eax
	je	.L84
	movl	36(%ebx), %ecx
	movl	40(%ebx), %edx
	testl	%ecx, %ecx
	je	.L101
.L86:
	subl	$4, %esp
	.cfi_def_cfa_offset 20
	pushl	$7116
	.cfi_def_cfa_offset 24
	pushl	$1
	.cfi_def_cfa_offset 28
	pushl	%edx
	.cfi_def_cfa_offset 32
	call	*%eax
	addl	$16, %esp
	.cfi_def_cfa_offset 16
	testl	%eax, %eax
	je	.L102
	leal	1328(%eax), %edx
	movl	%eax, 28(%ebx)
	movl	$0, 52(%eax)
	movl	$1, 8(%eax)
	movl	$15, 36(%eax)
	movl	$0, 40(%eax)
	movl	$0, 44(%eax)
	movl	$0, 48(%eax)
	movl	$0, 28(%eax)
	movl	$0, 20(%ebx)
	movl	$0, 8(%ebx)
	movl	$0, 24(%ebx)
	movl	$1, 48(%ebx)
	movl	$0, (%eax)
	movl	$0, 4(%eax)
	movl	$0, 12(%eax)
	movl	$32768, 20(%eax)
	movl	$0, 32(%eax)
	movl	$0, 56(%eax)
	movl	$0, 60(%eax)
	movl	%edx, 108(%eax)
	movl	%edx, 80(%eax)
	movl	%edx, 76(%eax)
	movl	$1, 7104(%eax)
	movl	$-1, 7108(%eax)
	xorl	%eax, %eax
	.p2align 4,,10
	.p2align 3
.L96:
	addl	$8, %esp
	.cfi_remember_state
	.cfi_def_cfa_offset 8
	popl	%ebx
	.cfi_restore 3
	.cfi_def_cfa_offset 4
	ret
	.p2align 4,,10
	.p2align 3
.L84:
	.cfi_restore_state
	movl	36(%ebx), %ecx
	xorl	%edx, %edx
	movl	$zcalloc, 32(%ebx)
	movl	$0, 40(%ebx)
	movl	$zcalloc, %eax
	testl	%ecx, %ecx
	jne	.L86
	.p2align 4,,10
	.p2align 3
.L101:
	movl	$zcfree, 36(%ebx)
	jmp	.L86
	.p2align 4,,10
	.p2align 3
.L91:
	addl	$8, %esp
	.cfi_remember_state
	.cfi_def_cfa_offset 8
	movl	$-6, %eax
	popl	%ebx
	.cfi_restore 3
	.cfi_def_cfa_offset 4
	ret
	.p2align 4,,10
	.p2align 3
.L102:
	.cfi_restore_state
	movl	$-4, %eax
	jmp	.L96
.L92:
	movl	$-2, %eax
	jmp	.L96
	.cfi_endproc
.LFE26:
	.size	inflateInit_, .-inflateInit_
	.section	.text.unlikely
.LCOLDE4:
	.text
.LHOTE4:
	.section	.text.unlikely
.LCOLDB5:
	.text
.LHOTB5:
	.p2align 4,,15
	.globl	inflatePrime
	.type	inflatePrime, @function
inflatePrime:
.LFB27:
	.cfi_startproc
	pushl	%esi
	.cfi_def_cfa_offset 8
	.cfi_offset 6, -8
	pushl	%ebx
	.cfi_def_cfa_offset 12
	.cfi_offset 3, -12
	movl	12(%esp), %eax
	movl	16(%esp), %ecx
	testl	%eax, %eax
	je	.L109
	movl	28(%eax), %edx
	testl	%edx, %edx
	je	.L109
	testl	%ecx, %ecx
	js	.L111
	cmpl	$16, %ecx
	jg	.L109
	movl	60(%edx), %esi
	leal	(%ecx,%esi), %ebx
	cmpl	$32, %ebx
	ja	.L109
	movl	$1, %eax
	movl	%ebx, 60(%edx)
	sall	%cl, %eax
	movl	%esi, %ecx
	subl	$1, %eax
	andl	20(%esp), %eax
	sall	%cl, %eax
	addl	%eax, 56(%edx)
	xorl	%eax, %eax
.L104:
	popl	%ebx
	.cfi_remember_state
	.cfi_restore 3
	.cfi_def_cfa_offset 8
	popl	%esi
	.cfi_restore 6
	.cfi_def_cfa_offset 4
	ret
	.p2align 4,,10
	.p2align 3
.L111:
	.cfi_restore_state
	movl	$0, 56(%edx)
	movl	$0, 60(%edx)
	xorl	%eax, %eax
	popl	%ebx
	.cfi_remember_state
	.cfi_restore 3
	.cfi_def_cfa_offset 8
	popl	%esi
	.cfi_restore 6
	.cfi_def_cfa_offset 4
	ret
	.p2align 4,,10
	.p2align 3
.L109:
	.cfi_restore_state
	movl	$-2, %eax
	jmp	.L104
	.cfi_endproc
.LFE27:
	.size	inflatePrime, .-inflatePrime
	.section	.text.unlikely
.LCOLDE5:
	.text
.LHOTE5:
	.section	.rodata.str1.1,"aMS",@progbits,1
.LC6:
	.string	"incorrect header check"
.LC7:
	.string	"unknown compression method"
.LC8:
	.string	"invalid window size"
.LC9:
	.string	"unknown header flags set"
.LC10:
	.string	"header crc mismatch"
.LC11:
	.string	"invalid block type"
.LC12:
	.string	"invalid stored block lengths"
	.section	.rodata.str1.4,"aMS",@progbits,1
	.align 4
.LC13:
	.string	"too many length or distance symbols"
	.section	.rodata.str1.1
.LC14:
	.string	"invalid code lengths set"
.LC15:
	.string	"invalid bit length repeat"
	.section	.rodata.str1.4
	.align 4
.LC16:
	.string	"invalid code -- missing end-of-block"
	.section	.rodata.str1.1
.LC17:
	.string	"invalid literal/lengths set"
.LC18:
	.string	"invalid distances set"
.LC19:
	.string	"invalid literal/length code"
.LC20:
	.string	"invalid distance code"
.LC21:
	.string	"invalid distance too far back"
.LC22:
	.string	"incorrect data check"
.LC23:
	.string	"incorrect length check"
	.section	.text.unlikely
.LCOLDB24:
	.text
.LHOTB24:
	.p2align 4,,15
	.globl	inflate
	.type	inflate, @function
inflate:
.LFB30:
	.cfi_startproc
	pushl	%ebp
	.cfi_def_cfa_offset 8
	.cfi_offset 5, -8
	pushl	%edi
	.cfi_def_cfa_offset 12
	.cfi_offset 7, -12
	pushl	%esi
	.cfi_def_cfa_offset 16
	.cfi_offset 6, -16
	pushl	%ebx
	.cfi_def_cfa_offset 20
	.cfi_offset 3, -20
	subl	$108, %esp
	.cfi_def_cfa_offset 128
	movl	128(%esp), %eax
	testl	%eax, %eax
	je	.L387
	movl	128(%esp), %eax
	movl	28(%eax), %edi
	testl	%edi, %edi
	je	.L387
	movl	12(%eax), %eax
	testl	%eax, %eax
	movl	%eax, 12(%esp)
	je	.L387
	movl	128(%esp), %eax
	movl	(%eax), %ebp
	testl	%ebp, %ebp
	je	.L114
	movl	4(%eax), %eax
	movl	%eax, 24(%esp)
.L115:
	movl	(%edi), %eax
	cmpl	$11, %eax
	je	.L774
.L116:
	movl	128(%esp), %ecx
	movl	132(%esp), %edx
	movl	%edi, 4(%esp)
	movl	$0, 28(%esp)
	movl	16(%ecx), %esi
	movl	56(%edi), %ecx
	movl	%esi, %ebx
	movl	%ecx, 8(%esp)
	leal	-5(%edx), %ecx
	movl	%ebx, 20(%esp)
	movl	24(%esp), %ebx
	leal	752(%edi), %edx
	movl	%ecx, 48(%esp)
	leal	1328(%edi), %ecx
	movl	%esi, 16(%esp)
	movl	%edx, 52(%esp)
	movl	60(%edi), %esi
	movl	%ecx, 56(%esp)
	movl	%ebx, %edi
.L117:
	cmpl	$30, %eax
	ja	.L387
.L707:
	jmp	*.L120(,%eax,4)
	.section	.rodata
	.align 4
	.align 4
.L120:
	.long	.L119
	.long	.L121
	.long	.L122
	.long	.L123
	.long	.L124
	.long	.L125
	.long	.L126
	.long	.L127
	.long	.L128
	.long	.L129
	.long	.L130
	.long	.L131
	.long	.L132
	.long	.L133
	.long	.L134
	.long	.L135
	.long	.L136
	.long	.L137
	.long	.L138
	.long	.L139
	.long	.L140
	.long	.L141
	.long	.L142
	.long	.L143
	.long	.L144
	.long	.L145
	.long	.L146
	.long	.L147
	.long	.L388
	.long	.L149
	.long	.L770
	.text
	.p2align 4,,10
	.p2align 3
.L129:
	cmpl	$31, %esi
	ja	.L165
	testl	%edi, %edi
	je	.L764
	movzbl	0(%ebp), %eax
	movl	%esi, %ecx
	leal	-1(%edi), %edx
	leal	1(%ebp), %ebx
	sall	%cl, %eax
	leal	8(%esi), %ecx
	addl	%eax, 8(%esp)
	cmpl	$31, %ecx
	ja	.L396
	testl	%edx, %edx
	je	.L435
	movzbl	1(%ebp), %eax
	leal	-2(%edi), %edx
	leal	2(%ebp), %ebx
	sall	%cl, %eax
	leal	16(%esi), %ecx
	addl	%eax, 8(%esp)
	cmpl	$31, %ecx
	ja	.L396
	testl	%edx, %edx
	je	.L435
	movzbl	2(%ebp), %eax
	addl	$24, %esi
	leal	-3(%edi), %edx
	leal	3(%ebp), %ebx
	sall	%cl, %eax
	addl	%eax, 8(%esp)
	cmpl	$31, %esi
	ja	.L396
	testl	%edx, %edx
	je	.L397
	movzbl	3(%ebp), %eax
	movl	%esi, %ecx
	leal	4(%ebp), %ebx
	subl	$4, %edi
	sall	%cl, %eax
	addl	%eax, 8(%esp)
.L166:
	movl	%ebx, %ebp
.L165:
	movl	8(%esp), %esi
	movl	128(%esp), %ebx
	movl	$0, 8(%esp)
	movl	%esi, %edx
	movl	%esi, %eax
	shrl	$24, %eax
	sall	$24, %edx
	addl	%eax, %edx
	movl	%esi, %eax
	shrl	$8, %eax
	andl	$65280, %eax
	addl	%eax, %edx
	movl	%esi, %eax
	movl	4(%esp), %esi
	andl	$65280, %eax
	sall	$8, %eax
	addl	%edx, %eax
	movl	%eax, 24(%esi)
	movl	%eax, 48(%ebx)
	movl	$10, (%esi)
	xorl	%esi, %esi
.L130:
	movl	4(%esp), %eax
	movl	12(%eax), %ecx
	testl	%ecx, %ecx
	je	.L775
	subl	$4, %esp
	.cfi_def_cfa_offset 132
	pushl	$0
	.cfi_def_cfa_offset 136
	pushl	$0
	.cfi_def_cfa_offset 140
	pushl	$0
	.cfi_def_cfa_offset 144
	call	adler32
	movl	20(%esp), %edx
	movl	144(%esp), %ebx
	addl	$16, %esp
	.cfi_def_cfa_offset 128
	movl	%eax, 24(%edx)
	movl	%eax, 48(%ebx)
	movl	$11, (%edx)
.L131:
	cmpl	$1, 48(%esp)
	jbe	.L764
.L132:
	movl	4(%esp), %eax
	movl	4(%eax), %edx
	testl	%edx, %edx
	jne	.L235
	cmpl	$2, %esi
	ja	.L409
	testl	%edi, %edi
	je	.L764
	movzbl	0(%ebp), %eax
	movl	%esi, %ecx
	leal	1(%ebp), %edx
	subl	$1, %edi
	addl	$8, %esi
	sall	%cl, %eax
	addl	%eax, 8(%esp)
.L236:
	movl	8(%esp), %ecx
	movl	4(%esp), %ebx
	movl	%ecx, %eax
	shrl	%ecx
	andl	$1, %eax
	movl	%eax, 4(%ebx)
	movl	%ecx, %eax
	andl	$3, %eax
	cmpl	$2, %eax
	je	.L238
	cmpl	$3, %eax
	je	.L239
	cmpl	$1, %eax
	je	.L240
	movl	$13, (%ebx)
	movl	$13, %eax
.L241:
	shrl	$2, %ecx
	subl	$3, %esi
	movl	%edx, %ebp
	movl	%ecx, 8(%esp)
	jmp	.L117
	.p2align 4,,10
	.p2align 3
.L774:
	movl	$12, (%edi)
	movb	$12, %al
	jmp	.L116
	.p2align 4,,10
	.p2align 3
.L235:
	movl	%esi, %ecx
	movl	$26, (%eax)
	andl	$-8, %esi
	andl	$7, %ecx
	movl	$26, %eax
	shrl	%cl, 8(%esp)
	jmp	.L707
	.p2align 4,,10
	.p2align 3
.L143:
	movl	4(%esp), %eax
	movl	72(%eax), %ebx
.L151:
	testl	%ebx, %ebx
	je	.L330
	cmpl	%ebx, %esi
	jnb	.L331
	testl	%edi, %edi
	je	.L764
	movl	8(%esp), %edx
	movl	%esi, %ecx
	jmp	.L333
	.p2align 4,,10
	.p2align 3
.L334:
	testl	%edi, %edi
	je	.L758
.L333:
	addl	$1, %ebp
	movzbl	-1(%ebp), %eax
	subl	$1, %edi
	sall	%cl, %eax
	addl	$8, %ecx
	addl	%eax, %edx
	cmpl	%ebx, %ecx
	jb	.L334
	movl	%edx, 8(%esp)
	movl	%ecx, %esi
.L331:
	movl	%ebx, %ecx
	movl	$1, %eax
	movl	8(%esp), %edx
	sall	%cl, %eax
	movl	4(%esp), %ecx
	subl	%ebx, %esi
	subl	$1, %eax
	andl	%edx, %eax
	addl	%eax, 68(%ecx)
	movl	%ebx, %ecx
	shrl	%cl, %edx
	movl	4(%esp), %ecx
	movl	%edx, 8(%esp)
	addl	%ebx, 7108(%ecx)
.L330:
	movl	4(%esp), %eax
	movl	$24, (%eax)
.L144:
	movl	16(%esp), %ebx
	testl	%ebx, %ebx
	je	.L764
	movl	20(%esp), %eax
	subl	%ebx, %eax
	movl	4(%esp), %ebx
	movl	68(%ebx), %edx
	cmpl	%edx, %eax
	jnb	.L335
	subl	%eax, %edx
	cmpl	44(%ebx), %edx
	movl	%edx, %ecx
	ja	.L776
.L336:
	movl	4(%esp), %eax
	movl	48(%eax), %eax
	cmpl	%eax, %ecx
	jbe	.L337
	movl	4(%esp), %edx
	subl	%eax, %ecx
	movl	40(%edx), %eax
	subl	%ecx, %eax
	addl	52(%edx), %eax
	movl	%eax, 32(%esp)
	movl	%edx, %eax
.L338:
	movl	64(%eax), %edx
	cmpl	%edx, %ecx
	jbe	.L340
	movl	%edx, %ecx
	jmp	.L340
.L297:
	cmpl	$6, 132(%esp)
	movl	4(%esp), %eax
	movl	$19, (%eax)
	je	.L764
	.p2align 4,,10
	.p2align 3
.L139:
	movl	4(%esp), %eax
	movl	$20, (%eax)
.L140:
	cmpl	$5, %edi
	jbe	.L298
	cmpl	$257, 16(%esp)
	ja	.L777
.L298:
	movl	4(%esp), %eax
	movl	84(%eax), %ecx
	movl	76(%eax), %ebx
	movl	$0, 7108(%eax)
	movl	$1, %eax
	sall	%cl, %eax
	movl	%ebx, 32(%esp)
	subl	$1, %eax
	movl	%eax, %edx
	movl	%eax, 40(%esp)
	movl	8(%esp), %eax
	andl	%edx, %eax
	leal	(%ebx,%eax,4), %eax
	movzbl	1(%eax), %edx
	movzbl	(%eax), %ebx
	movzwl	2(%eax), %eax
	movw	%ax, 36(%esp)
	movzbl	%dl, %eax
	cmpl	%eax, %esi
	jnb	.L299
	testl	%edi, %edi
	je	.L764
	movl	%esi, %ecx
	movl	8(%esp), %esi
	jmp	.L301
	.p2align 4,,10
	.p2align 3
.L302:
	testl	%edi, %edi
	je	.L778
.L301:
	addl	$1, %ebp
	movzbl	-1(%ebp), %eax
	movl	32(%esp), %ebx
	subl	$1, %edi
	sall	%cl, %eax
	addl	$8, %ecx
	addl	%eax, %esi
	movl	40(%esp), %eax
	andl	%esi, %eax
	leal	(%ebx,%eax,4), %eax
	movzbl	1(%eax), %edx
	movzbl	(%eax), %ebx
	movzwl	2(%eax), %eax
	movw	%ax, 36(%esp)
	movzbl	%dl, %eax
	cmpl	%ecx, %eax
	ja	.L302
	movl	%esi, 8(%esp)
	movl	%ecx, %esi
.L299:
	testb	%bl, %bl
	jne	.L303
	movl	4(%esp), %ebx
	subl	%eax, %esi
	movl	%edx, %ecx
	shrl	%cl, 8(%esp)
	movl	%eax, 7108(%ebx)
	movzwl	36(%esp), %eax
	movl	%eax, 64(%ebx)
.L304:
	movl	4(%esp), %eax
	movl	$25, (%eax)
	movl	$25, %eax
	jmp	.L707
	.p2align 4,,10
	.p2align 3
.L141:
	movl	4(%esp), %eax
	movl	72(%eax), %ebx
.L152:
	testl	%ebx, %ebx
	jne	.L313
	movl	4(%esp), %eax
	movl	4(%esp), %ebx
	movl	64(%eax), %eax
.L314:
	movl	%eax, 7112(%ebx)
	movl	$22, (%ebx)
.L142:
	movl	4(%esp), %eax
	movl	88(%eax), %ecx
	movl	80(%eax), %ebx
	movl	$1, %eax
	sall	%cl, %eax
	movl	%ebx, 36(%esp)
	subl	$1, %eax
	movl	%eax, %edx
	movl	%eax, 44(%esp)
	movl	8(%esp), %eax
	andl	%edx, %eax
	leal	(%ebx,%eax,4), %eax
	movzbl	1(%eax), %edx
	movzbl	(%eax), %ebx
	movzwl	2(%eax), %eax
	movw	%ax, 32(%esp)
	movzbl	%dl, %eax
	cmpl	%eax, %esi
	movl	%eax, 40(%esp)
	jnb	.L319
	testl	%edi, %edi
	je	.L764
	movl	%esi, %ecx
	movl	%edi, %esi
	movl	8(%esp), %edi
	jmp	.L321
	.p2align 4,,10
	.p2align 3
.L322:
	testl	%esi, %esi
	je	.L779
.L321:
	addl	$1, %ebp
	movzbl	-1(%ebp), %eax
	movl	36(%esp), %ebx
	subl	$1, %esi
	sall	%cl, %eax
	addl	$8, %ecx
	addl	%eax, %edi
	movl	44(%esp), %eax
	andl	%edi, %eax
	leal	(%ebx,%eax,4), %eax
	movzbl	1(%eax), %edx
	movzbl	(%eax), %ebx
	movzwl	2(%eax), %eax
	movw	%ax, 32(%esp)
	movzbl	%dl, %eax
	cmpl	%ecx, %eax
	movl	%eax, 40(%esp)
	ja	.L322
	movl	%edi, 8(%esp)
	movl	%esi, %edi
	movl	%ecx, %esi
.L319:
	testb	$-16, %bl
	jne	.L780
	movzwl	32(%esp), %ecx
	movl	%ecx, 40(%esp)
	leal	(%ebx,%eax), %ecx
	movl	$1, %ebx
	sall	%cl, %ebx
	movl	%edx, %ecx
	leal	-1(%ebx), %ebx
	movl	%ebx, 60(%esp)
	andl	8(%esp), %ebx
	shrl	%cl, %ebx
	movl	40(%esp), %ecx
	leal	(%ebx,%ecx), %edx
	movl	36(%esp), %ebx
	leal	(%ebx,%edx,4), %edx
	movzwl	2(%edx), %ecx
	movzbl	(%edx), %ebx
	movzbl	1(%edx), %edx
	movw	%cx, 32(%esp)
	leal	(%eax,%edx), %ecx
	movl	%edx, 44(%esp)
	cmpl	%ecx, %esi
	jnb	.L325
	testl	%edi, %edi
	je	.L764
	movl	%edi, %edx
	movl	8(%esp), %ebx
	movl	%ebp, %edi
	movl	%edx, %ebp
	jmp	.L327
	.p2align 4,,10
	.p2align 3
.L328:
	testl	%ebp, %ebp
	je	.L781
.L327:
	addl	$1, %edi
	movzbl	-1(%edi), %edx
	movl	%esi, %ecx
	addl	$8, %esi
	subl	$1, %ebp
	sall	%cl, %edx
	movl	%eax, %ecx
	addl	%edx, %ebx
	movl	60(%esp), %edx
	andl	%ebx, %edx
	shrl	%cl, %edx
	addl	40(%esp), %edx
	movl	36(%esp), %ecx
	leal	(%ecx,%edx,4), %edx
	movzbl	(%edx), %ecx
	movb	%cl, 64(%esp)
	movzwl	2(%edx), %ecx
	movzbl	1(%edx), %edx
	movw	%cx, 32(%esp)
	leal	(%edx,%eax), %ecx
	movl	%edx, 44(%esp)
	cmpl	%esi, %ecx
	ja	.L328
	movl	%ebx, 8(%esp)
	movzbl	64(%esp), %ebx
	movl	%ebp, %ecx
	movl	%edi, %ebp
	movl	%ecx, %edi
.L325:
	movl	%eax, %ecx
	shrl	%cl, 8(%esp)
	movl	4(%esp), %ecx
	subl	%eax, %esi
	movl	%edx, 40(%esp)
	addl	7108(%ecx), %eax
	movl	%eax, 36(%esp)
	movl	44(%esp), %eax
	movl	36(%esp), %edx
	jmp	.L324
	.p2align 4,,10
	.p2align 3
.L124:
	movl	4(%esp), %eax
	movl	16(%eax), %eax
	testb	$4, %ah
	movl	%eax, %ebx
	je	.L203
	cmpl	$15, %esi
	movl	8(%esp), %ebx
	ja	.L204
.L202:
	testl	%edi, %edi
	je	.L764
	movl	8(%esp), %ebx
	movl	%esi, %ecx
	jmp	.L206
	.p2align 4,,10
	.p2align 3
.L207:
	testl	%edi, %edi
	je	.L744
.L206:
	addl	$1, %ebp
	movzbl	-1(%ebp), %edx
	subl	$1, %edi
	sall	%cl, %edx
	addl	$8, %ecx
	addl	%edx, %ebx
	cmpl	$15, %ecx
	jbe	.L207
	movl	%ebx, 8(%esp)
.L204:
	movl	4(%esp), %esi
	movl	32(%esi), %edx
	movl	%ebx, 64(%esi)
	testl	%edx, %edx
	je	.L208
	movl	%ebx, 20(%edx)
.L208:
	testb	$2, %ah
	jne	.L209
	movl	%eax, %ebx
	xorl	%esi, %esi
	andl	$1024, %eax
	movl	$0, 8(%esp)
	jmp	.L210
	.p2align 4,,10
	.p2align 3
.L782:
	subl	$4, %esp
	.cfi_def_cfa_offset 132
	movb	$1, %al
	pushl	$1
	.cfi_def_cfa_offset 136
	movl	36(%esi), %ecx
	sall	%cl, %eax
	pushl	%eax
	.cfi_def_cfa_offset 140
	movl	140(%esp), %eax
	pushl	40(%eax)
	.cfi_def_cfa_offset 144
	movl	144(%esp), %eax
	call	*32(%eax)
	addl	$16, %esp
	.cfi_def_cfa_offset 128
	testl	%eax, %eax
	movl	%eax, 52(%esi)
	jne	.L366
	movl	$30, (%edi)
	.p2align 4,,10
	.p2align 3
.L770:
	movl	$-4, %eax
	.p2align 4,,10
	.p2align 3
.L611:
	addl	$108, %esp
	.cfi_remember_state
	.cfi_def_cfa_offset 20
	popl	%ebx
	.cfi_restore 3
	.cfi_def_cfa_offset 16
	popl	%esi
	.cfi_restore 6
	.cfi_def_cfa_offset 12
	popl	%edi
	.cfi_restore 7
	.cfi_def_cfa_offset 8
	popl	%ebp
	.cfi_restore 5
	.cfi_def_cfa_offset 4
	ret
	.p2align 4,,10
	.p2align 3
.L388:
	.cfi_restore_state
	movl	%edi, %ebx
	movl	4(%esp), %edi
	movl	$1, 28(%esp)
	.p2align 4,,10
	.p2align 3
.L148:
	movl	128(%esp), %eax
	movl	12(%esp), %ecx
	movl	%ecx, 12(%eax)
	movl	%eax, %ecx
	movl	16(%esp), %eax
	movl	%ebx, 4(%ecx)
	movl	%ebp, (%ecx)
	movl	8(%esp), %ebx
	movl	%eax, 16(%ecx)
	movl	40(%edi), %ecx
	movl	%esi, 60(%edi)
	movl	%ebx, 56(%edi)
	testl	%ecx, %ecx
	jne	.L363
	cmpl	%eax, 20(%esp)
	je	.L364
	movl	(%edi), %eax
	cmpl	$28, %eax
	ja	.L364
	cmpl	$4, 132(%esp)
	jne	.L363
	cmpl	$25, %eax
	ja	.L364
	.p2align 4,,10
	.p2align 3
.L363:
	movl	128(%esp), %eax
	movl	20(%esp), %ebp
	subl	16(%esp), %ebp
	movl	28(%eax), %esi
	movl	52(%esi), %eax
	testl	%eax, %eax
	je	.L782
.L366:
	movl	40(%esi), %ebx
	testl	%ebx, %ebx
	jne	.L368
	movl	36(%esi), %ecx
	movb	$1, %bl
	movl	$0, 48(%esi)
	movl	$0, 44(%esi)
	sall	%cl, %ebx
	movl	%ebx, 40(%esi)
.L368:
	cmpl	%ebx, %ebp
	jnb	.L783
	movl	48(%esi), %edx
	subl	%edx, %ebx
	cmpl	%ebp, %ebx
	jbe	.L371
	movl	%ebp, %ebx
.L371:
	addl	%edx, %eax
	movl	12(%esp), %edx
	subl	$4, %esp
	.cfi_def_cfa_offset 132
	pushl	%ebx
	.cfi_def_cfa_offset 136
	subl	%ebp, %edx
	pushl	%edx
	.cfi_def_cfa_offset 140
	pushl	%eax
	.cfi_def_cfa_offset 144
	call	memcpy
	addl	$16, %esp
	.cfi_def_cfa_offset 128
	subl	%ebx, %ebp
	jne	.L784
	movl	48(%esi), %eax
	movl	40(%esi), %edx
	addl	%ebx, %eax
	cmpl	%edx, %eax
	movl	%eax, 48(%esi)
	je	.L785
.L373:
	movl	44(%esi), %eax
	cmpl	%eax, %edx
	jbe	.L364
	addl	%eax, %ebx
	movl	%ebx, 44(%esi)
	.p2align 4,,10
	.p2align 3
.L364:
	movl	128(%esp), %eax
	movl	20(%esp), %ebx
	movl	24(%esp), %esi
	subl	16(%eax), %ebx
	subl	4(%eax), %esi
	addl	%esi, 8(%eax)
	addl	%ebx, 20(%eax)
	addl	%ebx, 28(%edi)
	testl	%ebx, %ebx
	je	.L374
	movl	8(%edi), %edx
	testl	%edx, %edx
	je	.L374
	movl	16(%edi), %eax
	testl	%eax, %eax
	je	.L375
	subl	$4, %esp
	.cfi_def_cfa_offset 132
	pushl	%ebx
	.cfi_def_cfa_offset 136
	movl	136(%esp), %eax
	movl	12(%eax), %eax
	movl	%eax, 12(%esp)
	subl	%ebx, %eax
	pushl	%eax
	.cfi_def_cfa_offset 140
	pushl	24(%edi)
	.cfi_def_cfa_offset 144
	call	crc32
	addl	$16, %esp
	.cfi_def_cfa_offset 128
.L376:
	movl	128(%esp), %edx
	movl	%eax, 24(%edi)
	movl	%eax, 48(%edx)
.L374:
	cmpl	$1, 4(%edi)
	movl	(%edi), %edx
	sbbl	%eax, %eax
	notl	%eax
	andl	$64, %eax
	addl	60(%edi), %eax
	cmpl	$11, %edx
	je	.L378
	cmpl	$14, %edx
	je	.L438
	cmpl	$19, %edx
	je	.L438
.L769:
	xorl	%edx, %edx
.L379:
	movl	128(%esp), %edi
	addl	%edx, %eax
	orl	%esi, %ebx
	movl	%eax, 44(%edi)
	je	.L444
	cmpl	$4, 132(%esp)
	movl	28(%esp), %eax
	jne	.L611
.L444:
	movl	28(%esp), %eax
	testl	%eax, %eax
	jne	.L611
	addl	$108, %esp
	.cfi_remember_state
	.cfi_def_cfa_offset 20
	movl	$-5, %eax
	popl	%ebx
	.cfi_restore 3
	.cfi_def_cfa_offset 16
	popl	%esi
	.cfi_restore 6
	.cfi_def_cfa_offset 12
	popl	%edi
	.cfi_restore 7
	.cfi_def_cfa_offset 8
	popl	%ebp
	.cfi_restore 5
	.cfi_def_cfa_offset 4
	ret
	.p2align 4,,10
	.p2align 3
.L122:
	.cfi_restore_state
	cmpl	$31, %esi
	ja	.L189
.L188:
	testl	%edi, %edi
	je	.L764
	movl	8(%esp), %edx
	movl	%esi, %ecx
	jmp	.L191
	.p2align 4,,10
	.p2align 3
.L192:
	testl	%edi, %edi
	je	.L758
.L191:
	addl	$1, %ebp
	movzbl	-1(%ebp), %eax
	subl	$1, %edi
	sall	%cl, %eax
	addl	$8, %ecx
	addl	%eax, %edx
	cmpl	$31, %ecx
	jbe	.L192
	movl	%edx, 8(%esp)
.L189:
	movl	4(%esp), %eax
	movl	32(%eax), %eax
	testl	%eax, %eax
	je	.L193
	movl	8(%esp), %esi
	movl	%esi, 4(%eax)
.L193:
	movl	4(%esp), %eax
	testb	$2, 17(%eax)
	jne	.L786
.L194:
	movl	$3, (%eax)
	movl	$0, 8(%esp)
	xorl	%esi, %esi
	jmp	.L195
	.p2align 4,,10
	.p2align 3
.L125:
	movl	4(%esp), %eax
	movl	16(%eax), %ebx
	movl	%ebx, %eax
	andl	$1024, %eax
.L161:
	testl	%eax, %eax
	je	.L211
	movl	4(%esp), %eax
	movl	%edi, %ecx
	movl	64(%eax), %eax
	cmpl	%eax, %edi
	movl	%eax, 32(%esp)
	ja	.L787
.L212:
	testl	%ecx, %ecx
	movl	32(%esp), %edx
	je	.L213
	movl	4(%esp), %eax
	movl	32(%eax), %edx
	testl	%edx, %edx
	je	.L214
	movl	16(%edx), %eax
	testl	%eax, %eax
	movl	%eax, 36(%esp)
	je	.L214
	movl	20(%edx), %eax
	subl	32(%esp), %eax
	movl	24(%edx), %ebx
	leal	(%ecx,%eax), %edx
	movl	%edx, 32(%esp)
	cmpl	%ebx, 32(%esp)
	movl	%ecx, %edx
	jbe	.L215
	subl	%eax, %ebx
	movl	%ebx, %edx
.L215:
	addl	36(%esp), %eax
	movl	%ecx, 32(%esp)
	subl	$4, %esp
	.cfi_def_cfa_offset 132
	pushl	%edx
	.cfi_def_cfa_offset 136
	pushl	%ebp
	.cfi_def_cfa_offset 140
	pushl	%eax
	.cfi_def_cfa_offset 144
	call	memcpy
	movl	20(%esp), %eax
	addl	$16, %esp
	.cfi_def_cfa_offset 128
	movl	32(%esp), %ecx
	movl	16(%eax), %ebx
.L214:
	andb	$2, %bh
	jne	.L788
.L216:
	movl	4(%esp), %eax
	subl	%ecx, %edi
	addl	%ecx, %ebp
	movl	64(%eax), %ebx
	movl	%ebx, %edx
	movl	%ebx, 32(%esp)
	subl	%ecx, %edx
	movl	%edx, 64(%eax)
.L213:
	testl	%edx, %edx
	jne	.L764
	movl	4(%esp), %eax
	movl	16(%eax), %ebx
.L211:
	movl	4(%esp), %eax
	testb	$8, %bh
	movl	$0, 64(%eax)
	movl	$6, (%eax)
	jne	.L789
.L217:
	movl	4(%esp), %eax
	movl	32(%eax), %eax
	testl	%eax, %eax
	je	.L222
	movl	$0, 28(%eax)
	jmp	.L222
	.p2align 4,,10
	.p2align 3
.L134:
	movl	4(%esp), %eax
	movl	64(%eax), %eax
.L157:
	movl	4(%esp), %ebx
	movl	$15, (%ebx)
.L156:
	testl	%eax, %eax
	je	.L246
	cmpl	%eax, %edi
	movl	%edi, %ebx
	ja	.L790
.L247:
	cmpl	16(%esp), %ebx
	ja	.L791
.L248:
	testl	%ebx, %ebx
	je	.L764
	subl	$4, %esp
	.cfi_def_cfa_offset 132
	subl	%ebx, %edi
	pushl	%ebx
	.cfi_def_cfa_offset 136
	pushl	%ebp
	.cfi_def_cfa_offset 140
	addl	%ebx, %ebp
	pushl	24(%esp)
	.cfi_def_cfa_offset 144
	call	memcpy
	movl	20(%esp), %eax
	subl	%ebx, 32(%esp)
	addl	%ebx, 28(%esp)
	addl	$16, %esp
	.cfi_def_cfa_offset 128
	subl	%ebx, 64(%eax)
	movl	(%eax), %eax
	jmp	.L117
	.p2align 4,,10
	.p2align 3
.L135:
	movl	4(%esp), %eax
	movl	64(%eax), %eax
	jmp	.L156
	.p2align 4,,10
	.p2align 3
.L127:
	movl	4(%esp), %eax
	movl	16(%eax), %ebx
	testb	$16, %bh
	je	.L223
.L803:
	testl	%edi, %edi
	je	.L764
	movl	%esi, 40(%esp)
	xorl	%ebx, %ebx
	movl	%ebp, 32(%esp)
	movl	%edi, 36(%esp)
	movl	4(%esp), %esi
	jmp	.L225
	.p2align 4,,10
	.p2align 3
.L792:
	cmpl	36(%esp), %ebx
	jnb	.L442
.L225:
	movl	32(%esp), %eax
	addl	$1, %ebx
	movzbl	-1(%eax,%ebx), %ebp
	movl	32(%esi), %eax
	testl	%eax, %eax
	movl	%ebp, %edx
	je	.L224
	movl	36(%eax), %edi
	testl	%edi, %edi
	je	.L224
	movl	64(%esi), %ecx
	cmpl	40(%eax), %ecx
	jnb	.L224
	leal	1(%ecx), %eax
	movl	%eax, 64(%esi)
	movb	%dl, (%edi,%ecx)
.L224:
	testl	%ebp, %ebp
	jne	.L792
.L442:
	movl	4(%esp), %eax
	movl	36(%esp), %edi
	movl	40(%esp), %esi
	movl	%ebp, 36(%esp)
	movl	32(%esp), %ebp
	testb	$2, 17(%eax)
	jne	.L793
.L227:
	subl	%ebx, %edi
	addl	%ebx, %ebp
	movl	36(%esp), %ebx
	testl	%ebx, %ebx
	jne	.L764
	movl	4(%esp), %eax
	movl	16(%eax), %ebx
.L228:
	movl	4(%esp), %eax
	movl	$8, (%eax)
.L158:
	testb	$2, %bh
	je	.L229
	cmpl	$15, %esi
	ja	.L406
	testl	%edi, %edi
	je	.L764
	leal	1(%ebp), %eax
	movl	%esi, %ecx
	leal	-1(%edi), %edx
	movl	%eax, 32(%esp)
	movzbl	0(%ebp), %eax
	sall	%cl, %eax
	leal	8(%esi), %ecx
	addl	%eax, 8(%esp)
	cmpl	$15, %ecx
	ja	.L407
	testl	%edx, %edx
	je	.L164
	leal	2(%ebp), %eax
	subl	$2, %edi
	addl	$16, %esi
	movl	%eax, 32(%esp)
	movzbl	1(%ebp), %eax
	sall	%cl, %eax
	addl	%eax, 8(%esp)
.L230:
	movl	4(%esp), %edx
	movzwl	24(%edx), %eax
	cmpl	8(%esp), %eax
	je	.L408
	movl	128(%esp), %eax
	movl	32(%esp), %ebp
	movl	$.LC10, 24(%eax)
	movl	$29, (%edx)
	movl	$29, %eax
	jmp	.L707
	.p2align 4,,10
	.p2align 3
.L128:
	movl	4(%esp), %eax
	movl	16(%eax), %ebx
	jmp	.L158
	.p2align 4,,10
	.p2align 3
.L149:
	movl	%edi, %ebx
	movl	$-3, 28(%esp)
	movl	4(%esp), %edi
	jmp	.L148
	.p2align 4,,10
	.p2align 3
.L119:
	movl	4(%esp), %eax
	movl	8(%eax), %edx
	testl	%edx, %edx
	je	.L171
	cmpl	$15, %esi
	ja	.L172
	testl	%edi, %edi
	je	.L764
	leal	-1(%edi), %eax
	movl	%esi, %ecx
	leal	1(%ebp), %ebx
	movl	%eax, 32(%esp)
	movzbl	0(%ebp), %eax
	sall	%cl, %eax
	leal	8(%esi), %ecx
	addl	%eax, 8(%esp)
	cmpl	$15, %ecx
	ja	.L400
	movl	32(%esp), %eax
	testl	%eax, %eax
	je	.L435
	movzbl	1(%ebp), %eax
	leal	2(%ebp), %ebx
	subl	$2, %edi
	addl	$16, %esi
	sall	%cl, %eax
	addl	%eax, 8(%esp)
.L173:
	movl	%ebx, %ebp
.L172:
	cmpl	$35615, 8(%esp)
	jne	.L176
	testb	$2, %dl
	jne	.L794
.L176:
	movl	4(%esp), %eax
	movl	$0, 16(%eax)
	movl	32(%eax), %eax
	testl	%eax, %eax
	je	.L177
	movl	$-1, 48(%eax)
.L177:
	andl	$1, %edx
	je	.L178
	movl	8(%esp), %ecx
	movl	$138547333, %edx
	movl	%ecx, %eax
	shrl	$8, %ecx
	sall	$8, %eax
	movzwl	%ax, %eax
	addl	%eax, %ecx
	movl	%ecx, %eax
	mull	%edx
	movl	%ecx, %eax
	subl	%edx, %eax
	shrl	%eax
	addl	%edx, %eax
	shrl	$4, %eax
	movl	%eax, %edx
	sall	$5, %edx
	subl	%eax, %edx
	cmpl	%edx, %ecx
	jne	.L178
	movl	8(%esp), %eax
	andl	$15, %eax
	cmpl	$8, %eax
	je	.L180
	movl	128(%esp), %eax
	movl	$.LC7, 24(%eax)
	movl	4(%esp), %eax
	movl	$29, (%eax)
	movl	$29, %eax
	jmp	.L707
	.p2align 4,,10
	.p2align 3
.L121:
	cmpl	$15, %esi
	ja	.L398
	testl	%edi, %edi
	je	.L764
	movzbl	0(%ebp), %eax
	movl	%esi, %ecx
	leal	-1(%edi), %edx
	leal	1(%ebp), %ebx
	sall	%cl, %eax
	leal	8(%esi), %ecx
	addl	%eax, 8(%esp)
	cmpl	$15, %ecx
	ja	.L399
	testl	%edx, %edx
	je	.L170
	movzbl	1(%ebp), %eax
	leal	2(%ebp), %ebx
	subl	$2, %edi
	addl	$16, %esi
	sall	%cl, %eax
	addl	%eax, 8(%esp)
.L168:
	movl	8(%esp), %eax
	movl	4(%esp), %edx
	cmpb	$8, %al
	movl	%eax, 16(%edx)
	je	.L184
	movl	128(%esp), %eax
	movl	%ebx, %ebp
	movl	$.LC7, 24(%eax)
	movl	$29, (%edx)
	movl	$29, %eax
	jmp	.L707
	.p2align 4,,10
	.p2align 3
.L138:
	movl	4(%esp), %eax
	movl	4(%esp), %ebx
	movl	104(%eax), %eax
	movl	%eax, 36(%esp)
.L153:
	movl	96(%ebx), %eax
	movl	%ebp, 40(%esp)
	movl	%eax, 60(%esp)
	addl	100(%ebx), %eax
	movl	8(%esp), %ebx
	movl	%eax, 44(%esp)
	movl	%eax, %edx
.L258:
	cmpl	%edx, 36(%esp)
	jnb	.L292
	movl	4(%esp), %eax
	movl	84(%eax), %ecx
	movl	76(%eax), %edx
	movl	$1, %eax
	sall	%cl, %eax
	movl	%edx, %ebp
	movl	%edx, 32(%esp)
	leal	-1(%eax), %eax
	movl	%eax, 8(%esp)
	andl	%ebx, %eax
	leal	0(%ebp,%eax,4), %eax
	movzbl	1(%eax), %ecx
	movzwl	2(%eax), %edx
	movzbl	%cl, %eax
	cmpl	%eax, %esi
	jnb	.L293
	testl	%edi, %edi
	movl	40(%esp), %ebp
	je	.L750
	movl	%esi, %ecx
	jmp	.L260
	.p2align 4,,10
	.p2align 3
.L261:
	testl	%edi, %edi
	je	.L744
.L260:
	addl	$1, %ebp
	movzbl	-1(%ebp), %eax
	movl	32(%esp), %esi
	subl	$1, %edi
	sall	%cl, %eax
	addl	$8, %ecx
	addl	%eax, %ebx
	movl	8(%esp), %eax
	andl	%ebx, %eax
	leal	(%esi,%eax,4), %edx
	movzbl	1(%edx), %esi
	movzwl	2(%edx), %edx
	cmpl	%ecx, %esi
	movl	%esi, %eax
	ja	.L261
	movl	%ecx, %esi
	movl	%ebp, 40(%esp)
	movl	%eax, %ecx
.L293:
	cmpw	$15, %dx
	jbe	.L795
	cmpw	$16, %dx
	je	.L796
	cmpw	$17, %dx
	je	.L272
	leal	7(%eax), %edx
	cmpl	%edx, %esi
	jnb	.L273
	testl	%edi, %edi
	movl	40(%esp), %ebp
	je	.L750
	movl	%esi, %ecx
	movl	%eax, %esi
	movl	%edx, %eax
	jmp	.L279
	.p2align 4,,10
	.p2align 3
.L280:
	testl	%edi, %edi
	je	.L744
.L279:
	addl	$1, %ebp
	movzbl	-1(%ebp), %edx
	subl	$1, %edi
	sall	%cl, %edx
	addl	$8, %ecx
	addl	%edx, %ebx
	cmpl	%eax, %ecx
	jb	.L280
	movl	%esi, %eax
	movl	%ebp, 40(%esp)
	movl	%ecx, %esi
.L273:
	movl	%eax, %ecx
	subl	$7, %esi
	shrl	%cl, %ebx
	subl	%eax, %esi
	xorl	%eax, %eax
	movl	%ebx, %edx
	shrl	$7, %ebx
	andl	$127, %edx
	addl	$11, %edx
.L271:
	movl	36(%esp), %ebp
	movl	%ebp, %ecx
	addl	%edx, %ecx
	cmpl	44(%esp), %ecx
	movl	%ecx, 68(%esp)
	ja	.L281
	movw	%ax, 8(%esp)
	movl	4(%esp), %eax
	movl	%ebp, %ecx
	addl	$56, %ecx
	movl	%edx, 64(%esp)
	leal	(%eax,%ecx,2), %eax
	sall	$30, %eax
	shrl	$31, %eax
	cmpl	%eax, %edx
	jbe	.L282
	movl	%eax, 64(%esp)
.L282:
	cmpl	$6, %edx
	ja	.L797
	movzwl	8(%esp), %ebp
	movl	4(%esp), %eax
	cmpl	$2, %edx
	movw	%bp, (%eax,%ecx,2)
	movl	36(%esp), %ecx
	movw	%bp, 114(%eax,%ecx,2)
	je	.L288
	cmpl	$3, %edx
	movw	%bp, 116(%eax,%ecx,2)
	je	.L288
	cmpl	$4, %edx
	movw	%bp, 118(%eax,%ecx,2)
	je	.L288
	cmpl	$6, %edx
	movw	%bp, 120(%eax,%ecx,2)
	jne	.L288
	movw	%bp, 122(%eax,%ecx,2)
.L288:
	movl	4(%esp), %edx
	movl	68(%esp), %eax
	movl	%eax, 104(%edx)
	movl	%eax, 36(%esp)
	movl	44(%esp), %edx
	jmp	.L258
	.p2align 4,,10
	.p2align 3
.L136:
	cmpl	$13, %esi
	ja	.L390
	testl	%edi, %edi
	je	.L764
	leal	1(%ebp), %eax
	movl	%esi, %ecx
	leal	-1(%edi), %edx
	movl	%eax, 32(%esp)
	movzbl	0(%ebp), %eax
	sall	%cl, %eax
	leal	8(%esi), %ecx
	addl	%eax, 8(%esp)
	movl	8(%esp), %ebx
	cmpl	$13, %ecx
	ja	.L391
	testl	%edx, %edx
	je	.L164
	leal	2(%ebp), %eax
	subl	$2, %edi
	addl	$16, %esi
	movl	%eax, 32(%esp)
	movzbl	1(%ebp), %eax
	sall	%cl, %eax
	addl	%eax, %ebx
	movl	%ebx, 8(%esp)
	movl	%ebx, %ecx
.L162:
	movl	%ecx, %eax
	movl	%ecx, %ebx
	movl	4(%esp), %ebp
	shrl	$5, %eax
	movl	%ecx, %edx
	shrl	$10, %ebx
	andl	$31, %eax
	andl	$31, %edx
	andl	$15, %ebx
	addl	$1, %eax
	addl	$257, %edx
	addl	$4, %ebx
	shrl	$14, %ecx
	subl	$14, %esi
	cmpl	$30, %eax
	movl	%edx, 96(%ebp)
	movl	%eax, 100(%ebp)
	movl	%ebx, 92(%ebp)
	movl	%ecx, 8(%esp)
	ja	.L443
	cmpl	$286, %edx
	ja	.L443
	movl	4(%esp), %eax
	movl	%esi, %ecx
	xorl	%edx, %edx
	movl	8(%esp), %esi
	movl	%ebx, 8(%esp)
	movl	$0, 104(%eax)
	movl	$17, (%eax)
	jmp	.L251
	.p2align 4,,10
	.p2align 3
.L137:
	movl	4(%esp), %eax
	movl	92(%eax), %ebx
	movl	104(%eax), %edx
	cmpl	%edx, %ebx
	jbe	.L155
	movl	%esi, %ecx
	movl	%ebp, 32(%esp)
	movl	8(%esp), %esi
	movl	%ebx, 8(%esp)
.L251:
	cmpl	$2, %ecx
	ja	.L252
	testl	%edi, %edi
	je	.L735
	movl	32(%esp), %eax
	subl	$1, %edi
	movzbl	(%eax), %eax
	sall	%cl, %eax
	addl	$8, %ecx
	addl	%eax, %esi
	movl	32(%esp), %eax
	addl	$1, %eax
	movl	%eax, 32(%esp)
.L252:
	addl	$1, %edx
	movl	%esi, %eax
	subl	$3, %ecx
	andl	$7, %eax
	movzwl	order.3459-2(%edx,%edx), %ebp
	shrl	$3, %esi
	cmpl	8(%esp), %edx
	movl	4(%esp), %ebx
	movl	%edx, 104(%ebx)
	movw	%ax, 112(%ebx,%ebp,2)
	jb	.L251
	movl	32(%esp), %ebp
	movl	%esi, 8(%esp)
	movl	%ecx, %esi
.L155:
	cmpl	$18, %edx
	leal	order.3459(%edx,%edx), %eax
	movl	4(%esp), %ecx
	ja	.L257
	.p2align 4,,10
	.p2align 3
.L612:
	movzwl	(%eax), %edx
	addl	$2, %eax
	xorl	%ebx, %ebx
	cmpl	$order.3459+38, %eax
	movw	%bx, 112(%ecx,%edx,2)
	jne	.L612
	movl	4(%esp), %eax
	movl	$19, 104(%eax)
.L257:
	movl	4(%esp), %eax
	movl	56(%esp), %ebx
	subl	$8, %esp
	.cfi_def_cfa_offset 136
	movl	%ebx, 108(%eax)
	movl	%ebx, 76(%eax)
	movl	%eax, %ebx
	movl	$7, 84(%eax)
	addl	$84, %eax
	pushl	60(%esp)
	.cfi_def_cfa_offset 140
	pushl	%eax
	.cfi_def_cfa_offset 144
	movl	%ebx, %eax
	addl	$108, %eax
	pushl	%eax
	.cfi_def_cfa_offset 148
	movl	%ebx, %eax
	pushl	$19
	.cfi_def_cfa_offset 152
	addl	$112, %eax
	pushl	%eax
	.cfi_def_cfa_offset 156
	pushl	$0
	.cfi_def_cfa_offset 160
	call	inflate_table
	movl	%eax, 60(%esp)
	addl	$32, %esp
	.cfi_def_cfa_offset 128
	testl	%eax, %eax
	je	.L798
	movl	128(%esp), %eax
	movl	$.LC14, 24(%eax)
	movl	4(%esp), %eax
	movl	$29, (%eax)
	movl	$29, %eax
	jmp	.L707
	.p2align 4,,10
	.p2align 3
.L123:
	cmpl	$15, %esi
	ja	.L196
.L195:
	testl	%edi, %edi
	je	.L764
	movl	8(%esp), %edx
	movl	%esi, %ecx
	jmp	.L198
	.p2align 4,,10
	.p2align 3
.L199:
	testl	%edi, %edi
	je	.L758
.L198:
	addl	$1, %ebp
	movzbl	-1(%ebp), %eax
	subl	$1, %edi
	sall	%cl, %eax
	addl	$8, %ecx
	addl	%eax, %edx
	cmpl	$15, %ecx
	jbe	.L199
	movl	%edx, 8(%esp)
.L196:
	movl	4(%esp), %eax
	movl	32(%eax), %eax
	testl	%eax, %eax
	je	.L200
	movl	8(%esp), %ebx
	movzbl	%bl, %edx
	shrl	$8, %ebx
	movl	%edx, 8(%eax)
	movl	%ebx, 12(%eax)
.L200:
	movl	4(%esp), %eax
	movl	16(%eax), %eax
	testb	$2, %ah
	jne	.L799
.L201:
	movl	4(%esp), %esi
	movl	%eax, %ebx
	movl	$0, 8(%esp)
	movl	$4, (%esi)
	xorl	%esi, %esi
	testb	$4, %ah
	jne	.L202
.L203:
	movl	4(%esp), %edx
	movl	32(%edx), %edx
	testl	%edx, %edx
	je	.L403
	movl	%eax, %ebx
	movl	$0, 16(%edx)
	andl	$1024, %eax
.L210:
	movl	4(%esp), %edx
	movl	$5, (%edx)
	jmp	.L161
	.p2align 4,,10
	.p2align 3
.L145:
	movl	16(%esp), %ebx
	testl	%ebx, %ebx
	je	.L764
	movl	4(%esp), %edx
	movl	12(%esp), %ecx
	movl	64(%edx), %eax
	movb	%al, (%ecx)
	movl	%ebx, %eax
	movl	$20, (%edx)
	subl	$1, %eax
	movl	%eax, 16(%esp)
	leal	1(%ecx), %eax
	movl	%eax, 12(%esp)
	movl	$20, %eax
	jmp	.L707
	.p2align 4,,10
	.p2align 3
.L146:
	movl	4(%esp), %eax
	movl	8(%eax), %eax
	testl	%eax, %eax
	je	.L350
	cmpl	$31, %esi
	ja	.L422
	testl	%edi, %edi
	je	.L764
	movzbl	0(%ebp), %eax
	movl	%esi, %ecx
	leal	-1(%edi), %edx
	leal	1(%ebp), %ebx
	sall	%cl, %eax
	leal	8(%esi), %ecx
	addl	%eax, 8(%esp)
	cmpl	$31, %ecx
	ja	.L427
	testl	%edx, %edx
	je	.L435
	movzbl	1(%ebp), %eax
	leal	-2(%edi), %edx
	leal	2(%ebp), %ebx
	sall	%cl, %eax
	leal	16(%esi), %ecx
	addl	%eax, 8(%esp)
	cmpl	$31, %ecx
	ja	.L427
	testl	%edx, %edx
	je	.L435
	movzbl	2(%ebp), %eax
	leal	-3(%edi), %edx
	leal	3(%ebp), %ebx
	sall	%cl, %eax
	leal	24(%esi), %ecx
	addl	%eax, 8(%esp)
	cmpl	$31, %ecx
	ja	.L427
	testl	%edx, %edx
	je	.L435
	movzbl	3(%ebp), %eax
	leal	4(%ebp), %ebx
	subl	$4, %edi
	addl	$32, %esi
	sall	%cl, %eax
	addl	%eax, 8(%esp)
.L351:
	movl	128(%esp), %edx
	movl	20(%esp), %eax
	subl	16(%esp), %eax
	addl	%eax, 20(%edx)
	movl	4(%esp), %edx
	addl	%eax, 28(%edx)
	testl	%eax, %eax
	je	.L354
	movl	16(%edx), %edx
	testl	%edx, %edx
	je	.L355
	subl	$4, %esp
	.cfi_def_cfa_offset 132
	pushl	%eax
	.cfi_def_cfa_offset 136
	movl	20(%esp), %edx
	subl	%eax, %edx
	pushl	%edx
	.cfi_def_cfa_offset 140
	movl	16(%esp), %eax
	pushl	24(%eax)
	.cfi_def_cfa_offset 144
	call	crc32
	addl	$16, %esp
	.cfi_def_cfa_offset 128
.L356:
	movl	4(%esp), %edx
	movl	%eax, 24(%edx)
	movl	128(%esp), %edx
	movl	%eax, 48(%edx)
	movl	4(%esp), %edx
.L354:
	movl	16(%edx), %ebp
	movl	8(%esp), %eax
	testl	%ebp, %ebp
	jne	.L357
	movl	%eax, %edx
	movl	%eax, %ebp
	shrl	$24, %eax
	sall	$24, %edx
	leal	(%edx,%eax), %ecx
	movl	%ebp, %eax
	shrl	$8, %eax
	andl	$65280, %eax
	leal	(%ecx,%eax), %edx
	movl	%ebp, %eax
	andl	$65280, %eax
	sall	$8, %eax
	addl	%edx, %eax
	movl	4(%esp), %edx
.L357:
	cmpl	24(%edx), %eax
	je	.L800
	movl	128(%esp), %eax
	movl	%ebx, %ebp
	movl	$.LC22, 24(%eax)
	movl	4(%esp), %eax
	movl	$29, (%eax)
	movl	16(%esp), %eax
	movl	%eax, 20(%esp)
	movl	$29, %eax
	jmp	.L707
	.p2align 4,,10
	.p2align 3
.L126:
	movl	4(%esp), %eax
	movl	16(%eax), %ebx
	testb	$8, %bh
	je	.L217
.L789:
	testl	%edi, %edi
	je	.L764
	movl	%esi, 40(%esp)
	xorl	%ebx, %ebx
	movl	%ebp, 32(%esp)
	movl	%edi, 36(%esp)
	movl	4(%esp), %esi
	jmp	.L219
	.p2align 4,,10
	.p2align 3
.L801:
	cmpl	36(%esp), %ebx
	jnb	.L441
.L219:
	movl	32(%esp), %eax
	addl	$1, %ebx
	movzbl	-1(%eax,%ebx), %ebp
	movl	32(%esi), %eax
	testl	%eax, %eax
	movl	%ebp, %edx
	je	.L218
	movl	28(%eax), %edi
	testl	%edi, %edi
	je	.L218
	movl	64(%esi), %ecx
	cmpl	32(%eax), %ecx
	jnb	.L218
	leal	1(%ecx), %eax
	movl	%eax, 64(%esi)
	movb	%dl, (%edi,%ecx)
.L218:
	testl	%ebp, %ebp
	jne	.L801
.L441:
	movl	4(%esp), %eax
	movl	36(%esp), %edi
	movl	40(%esp), %esi
	movl	%ebp, 36(%esp)
	movl	32(%esp), %ebp
	testb	$2, 17(%eax)
	jne	.L802
.L221:
	movl	36(%esp), %eax
	subl	%ebx, %edi
	addl	%ebx, %ebp
	testl	%eax, %eax
	jne	.L764
	movl	4(%esp), %eax
	movl	16(%eax), %ebx
.L222:
	movl	4(%esp), %eax
	testb	$16, %bh
	movl	$0, 64(%eax)
	movl	$7, (%eax)
	jne	.L803
.L223:
	movl	4(%esp), %eax
	movl	32(%eax), %eax
	testl	%eax, %eax
	je	.L228
	movl	$0, 36(%eax)
	jmp	.L228
	.p2align 4,,10
	.p2align 3
.L147:
	movl	4(%esp), %eax
	movl	8(%eax), %eax
.L150:
	testl	%eax, %eax
	je	.L763
	movl	4(%esp), %eax
	movl	16(%eax), %ebx
	testl	%ebx, %ebx
	je	.L763
	cmpl	$31, %esi
	ja	.L360
	testl	%edi, %edi
	je	.L764
	movzbl	0(%ebp), %eax
	movl	%esi, %ecx
	leal	-1(%edi), %edx
	leal	1(%ebp), %ebx
	sall	%cl, %eax
	leal	8(%esi), %ecx
	addl	%eax, 8(%esp)
	cmpl	$31, %ecx
	ja	.L434
	testl	%edx, %edx
	je	.L435
	movzbl	1(%ebp), %eax
	leal	-2(%edi), %edx
	leal	2(%ebp), %ebx
	sall	%cl, %eax
	leal	16(%esi), %ecx
	addl	%eax, 8(%esp)
	cmpl	$31, %ecx
	ja	.L434
	testl	%edx, %edx
	je	.L435
	movzbl	2(%ebp), %eax
	leal	-3(%edi), %edx
	leal	3(%ebp), %ebx
	sall	%cl, %eax
	leal	24(%esi), %ecx
	addl	%eax, 8(%esp)
	cmpl	$31, %ecx
	ja	.L434
	testl	%edx, %edx
	je	.L435
	movzbl	3(%ebp), %eax
	leal	4(%ebp), %ebx
	subl	$4, %edi
	addl	$32, %esi
	sall	%cl, %eax
	addl	%eax, 8(%esp)
.L361:
	movl	%ebx, %ebp
.L360:
	movl	4(%esp), %eax
	movl	8(%esp), %ebx
	cmpl	%ebx, 28(%eax)
	je	.L436
	movl	128(%esp), %ebx
	movl	$.LC23, 24(%ebx)
	movl	$29, (%eax)
	movl	$29, %eax
	jmp	.L707
	.p2align 4,,10
	.p2align 3
.L133:
	movl	%esi, %ecx
	andl	$-8, %esi
	andl	$7, %ecx
	shrl	%cl, 8(%esp)
	cmpl	$31, %esi
	ja	.L411
	testl	%edi, %edi
	je	.L764
	movzbl	0(%ebp), %eax
	movl	%esi, %ecx
	leal	-1(%edi), %edx
	leal	1(%ebp), %ebx
	sall	%cl, %eax
	leal	8(%esi), %ecx
	addl	%eax, 8(%esp)
	cmpl	$31, %ecx
	ja	.L416
	testl	%edx, %edx
	je	.L435
	movzbl	1(%ebp), %eax
	leal	-2(%edi), %edx
	leal	2(%ebp), %ebx
	sall	%cl, %eax
	leal	16(%esi), %ecx
	addl	%eax, 8(%esp)
	cmpl	$31, %ecx
	ja	.L416
	testl	%edx, %edx
	je	.L435
	movzbl	2(%ebp), %eax
	leal	-3(%edi), %edx
	leal	3(%ebp), %ebx
	sall	%cl, %eax
	leal	24(%esi), %ecx
	addl	%eax, 8(%esp)
	cmpl	$31, %ecx
	ja	.L416
	testl	%edx, %edx
	je	.L435
	movzbl	3(%ebp), %eax
	leal	4(%ebp), %ebx
	subl	$4, %edi
	addl	$32, %esi
	sall	%cl, %eax
	addl	%eax, 8(%esp)
.L242:
	movl	8(%esp), %edx
	movzwl	%dx, %eax
	shrl	$16, %edx
	xorl	$65535, %edx
	cmpl	%edx, %eax
	je	.L245
	movl	128(%esp), %eax
	movl	%ebx, %ebp
	movl	$.LC12, 24(%eax)
	movl	4(%esp), %eax
	movl	$29, (%eax)
	movl	$29, %eax
	jmp	.L707
	.p2align 4,,10
	.p2align 3
.L438:
	movl	$256, %edx
	jmp	.L379
	.p2align 4,,10
	.p2align 3
.L764:
	movl	%edi, %ebx
	movl	4(%esp), %edi
	jmp	.L148
	.p2align 4,,10
	.p2align 3
.L378:
	subl	$-128, %eax
	jmp	.L769
	.p2align 4,,10
	.p2align 3
.L408:
	movl	32(%esp), %ebp
	xorl	%esi, %esi
	movl	$0, 8(%esp)
	.p2align 4,,10
	.p2align 3
.L229:
	movl	4(%esp), %eax
	movl	32(%eax), %eax
	testl	%eax, %eax
	je	.L233
	movl	%ebx, %edx
	movl	$1, 48(%eax)
	sarl	$9, %edx
	andl	$1, %edx
	movl	%edx, 44(%eax)
.L233:
	subl	$4, %esp
	.cfi_def_cfa_offset 132
	pushl	$0
	.cfi_def_cfa_offset 136
	pushl	$0
	.cfi_def_cfa_offset 140
	pushl	$0
	.cfi_def_cfa_offset 144
	call	crc32
	movl	20(%esp), %ebx
	movl	144(%esp), %edx
	addl	$16, %esp
	.cfi_def_cfa_offset 128
	movl	%eax, 24(%ebx)
	movl	%eax, 48(%edx)
	movl	$11, %eax
	movl	$11, (%ebx)
	jmp	.L707
	.p2align 4,,10
	.p2align 3
.L114:
	movl	4(%eax), %eax
	testl	%eax, %eax
	jne	.L387
	movl	$0, 24(%esp)
	jmp	.L115
	.p2align 4,,10
	.p2align 3
.L758:
	movl	%edi, %ebx
	movl	%edx, 8(%esp)
	movl	%ecx, %esi
	movl	4(%esp), %edi
	jmp	.L148
	.p2align 4,,10
	.p2align 3
.L375:
	subl	$4, %esp
	.cfi_def_cfa_offset 132
	pushl	%ebx
	.cfi_def_cfa_offset 136
	movl	136(%esp), %eax
	movl	12(%eax), %eax
	movl	%eax, 12(%esp)
	subl	%ebx, %eax
	pushl	%eax
	.cfi_def_cfa_offset 140
	pushl	24(%edi)
	.cfi_def_cfa_offset 144
	call	adler32
	addl	$16, %esp
	.cfi_def_cfa_offset 128
	jmp	.L376
.L164:
	movl	4(%esp), %edi
	movl	%ecx, %esi
	movl	32(%esp), %ebp
	xorl	%ebx, %ebx
	jmp	.L148
	.p2align 4,,10
	.p2align 3
.L783:
	movl	12(%esp), %edx
	subl	$4, %esp
	.cfi_def_cfa_offset 132
	pushl	%ebx
	.cfi_def_cfa_offset 136
	subl	%ebx, %edx
	pushl	%edx
	.cfi_def_cfa_offset 140
	pushl	%eax
	.cfi_def_cfa_offset 144
	call	memcpy
	movl	40(%esi), %eax
	movl	$0, 48(%esi)
	addl	$16, %esp
	.cfi_def_cfa_offset 128
	movl	%eax, 44(%esi)
	jmp	.L364
	.p2align 4,,10
	.p2align 3
.L387:
	movl	$-2, %eax
	jmp	.L611
	.p2align 4,,10
	.p2align 3
.L744:
	movl	%ebx, 8(%esp)
	movl	%ecx, %esi
	movl	%edi, %ebx
	movl	4(%esp), %edi
	jmp	.L148
	.p2align 4,,10
	.p2align 3
.L785:
	movl	$0, 48(%esi)
	jmp	.L373
	.p2align 4,,10
	.p2align 3
.L784:
	movl	12(%esp), %eax
	subl	$4, %esp
	.cfi_def_cfa_offset 132
	pushl	%ebp
	.cfi_def_cfa_offset 136
	subl	%ebp, %eax
	pushl	%eax
	.cfi_def_cfa_offset 140
	pushl	52(%esi)
	.cfi_def_cfa_offset 144
	call	memcpy
	movl	40(%esi), %eax
	movl	%ebp, 48(%esi)
	addl	$16, %esp
	.cfi_def_cfa_offset 128
	movl	%eax, 44(%esi)
	jmp	.L364
	.p2align 4,,10
	.p2align 3
.L246:
	movl	4(%esp), %eax
	movl	$11, (%eax)
	movl	$11, %eax
	jmp	.L707
	.p2align 4,,10
	.p2align 3
.L335:
	movl	12(%esp), %eax
	subl	%edx, %eax
	movl	%eax, 32(%esp)
	movl	4(%esp), %eax
	movl	64(%eax), %ecx
	movl	%ecx, %edx
.L340:
	cmpl	16(%esp), %ecx
	movl	%ecx, %ebx
	jbe	.L341
	movl	16(%esp), %ebx
.L341:
	movl	4(%esp), %ecx
	movl	32(%esp), %eax
	subl	%ebx, %edx
	subl	%ebx, 16(%esp)
	movl	%edx, 64(%ecx)
	leal	4(%eax), %edx
	movl	12(%esp), %eax
	cmpl	%edx, %eax
	movl	%eax, %edx
	setnb	%cl
	addl	$4, %edx
	cmpl	%edx, 32(%esp)
	setnb	%dl
	orl	%ecx, %edx
	cmpl	$9, %ebx
	seta	%cl
	testb	%cl, %dl
	je	.L342
	movl	%eax, %edx
	movl	32(%esp), %eax
	orl	%eax, %edx
	andl	$3, %edx
	jne	.L342
	leal	-4(%ebx), %ecx
	movl	%ebx, 36(%esp)
	movl	12(%esp), %ebx
	movl	%esi, 32(%esp)
	shrl	$2, %ecx
	addl	$1, %ecx
	leal	0(,%ecx,4), %edx
	movl	%edx, 40(%esp)
	xorl	%edx, %edx
.L343:
	movl	(%eax,%edx,4), %esi
	movl	%esi, (%ebx,%edx,4)
	addl	$1, %edx
	cmpl	%ecx, %edx
	jb	.L343
	movl	36(%esp), %ebx
	movl	40(%esp), %ecx
	movl	32(%esp), %esi
	movl	%eax, 32(%esp)
	movl	12(%esp), %edx
	movl	%ebx, %eax
	subl	%ecx, %eax
	movl	%eax, 36(%esp)
	movl	32(%esp), %eax
	addl	%ecx, %edx
	addl	%ecx, %eax
	cmpl	%ebx, %ecx
	je	.L348
	movzbl	(%eax), %ecx
	cmpl	$1, 36(%esp)
	movb	%cl, (%edx)
	je	.L348
	movzbl	1(%eax), %ecx
	cmpl	$2, 36(%esp)
	movb	%cl, 1(%edx)
	je	.L348
	movzbl	2(%eax), %eax
	movb	%al, 2(%edx)
.L348:
	movl	4(%esp), %eax
	addl	%ebx, 12(%esp)
	movl	64(%eax), %ecx
	testl	%ecx, %ecx
	je	.L349
	movl	(%eax), %eax
	jmp	.L117
	.p2align 4,,10
	.p2align 3
.L349:
	movl	$20, (%eax)
	movl	$20, %eax
	jmp	.L707
	.p2align 4,,10
	.p2align 3
.L787:
	movl	%eax, %ecx
	jmp	.L212
	.p2align 4,,10
	.p2align 3
.L777:
	movl	128(%esp), %eax
	movl	12(%esp), %ebx
	subl	$8, %esp
	.cfi_def_cfa_offset 136
	movl	%ebx, 12(%eax)
	movl	24(%esp), %ebx
	movl	%edi, 4(%eax)
	movl	16(%esp), %edi
	movl	%ebp, (%eax)
	movl	%ebx, 16(%eax)
	movl	12(%esp), %ebx
	movl	%edi, 56(%ebx)
	movl	%esi, 60(%ebx)
	pushl	28(%esp)
	.cfi_def_cfa_offset 140
	pushl	140(%esp)
	.cfi_def_cfa_offset 144
	call	inflate_fast
	movl	144(%esp), %eax
	movl	56(%ebx), %esi
	movl	12(%eax), %eax
	movl	%esi, 24(%esp)
	movl	60(%ebx), %esi
	movl	%eax, 28(%esp)
	movl	144(%esp), %eax
	movl	16(%eax), %eax
	movl	%eax, 32(%esp)
	movl	144(%esp), %eax
	addl	$16, %esp
	.cfi_def_cfa_offset 128
	movl	(%eax), %ebp
	movl	4(%eax), %edi
	movl	(%ebx), %eax
	cmpl	$11, %eax
	jne	.L117
	movl	4(%esp), %ebx
	movl	$-1, 7108(%ebx)
	jmp	.L707
	.p2align 4,,10
	.p2align 3
.L313:
	cmpl	%ebx, %esi
	jnb	.L315
	testl	%edi, %edi
	je	.L764
	movl	8(%esp), %edx
	movl	%esi, %ecx
	jmp	.L317
	.p2align 4,,10
	.p2align 3
.L318:
	testl	%edi, %edi
	je	.L758
.L317:
	addl	$1, %ebp
	movzbl	-1(%ebp), %eax
	subl	$1, %edi
	sall	%cl, %eax
	addl	$8, %ecx
	addl	%eax, %edx
	cmpl	%ebx, %ecx
	jb	.L318
	movl	%edx, 8(%esp)
	movl	%ecx, %esi
.L315:
	movl	%ebx, %ecx
	movl	$1, %eax
	movl	8(%esp), %edx
	sall	%cl, %eax
	movl	4(%esp), %ecx
	subl	%ebx, %esi
	subl	$1, %eax
	andl	%edx, %eax
	addl	64(%ecx), %eax
	movl	%eax, 64(%ecx)
	movl	%ebx, %ecx
	shrl	%cl, %edx
	movl	4(%esp), %ecx
	movl	%edx, 8(%esp)
	addl	%ebx, 7108(%ecx)
	movl	%ecx, %ebx
	jmp	.L314
	.p2align 4,,10
	.p2align 3
.L790:
	movl	%eax, %ebx
	jmp	.L247
	.p2align 4,,10
	.p2align 3
.L791:
	movl	16(%esp), %ebx
	jmp	.L248
.L800:
	movl	16(%esp), %esi
	movl	8(%edx), %eax
	movl	%ebx, %ebp
	movl	$0, 8(%esp)
	movl	%esi, 20(%esp)
	xorl	%esi, %esi
	.p2align 4,,10
	.p2align 3
.L350:
	movl	4(%esp), %ebx
	movl	$27, (%ebx)
	jmp	.L150
	.p2align 4,,10
	.p2align 3
.L171:
	movl	$12, (%eax)
	movl	$12, %eax
	jmp	.L707
	.p2align 4,,10
	.p2align 3
.L776:
	movl	7104(%ebx), %eax
	testl	%eax, %eax
	je	.L336
	movl	128(%esp), %eax
	movl	$.LC21, 24(%eax)
	movl	$29, (%ebx)
	movl	$29, %eax
	jmp	.L707
	.p2align 4,,10
	.p2align 3
.L780:
	movl	4(%esp), %edx
	movl	%eax, 44(%esp)
	movl	7108(%edx), %edx
	movl	%edx, 36(%esp)
.L324:
	addl	%eax, %edx
	movl	%eax, %ecx
	movl	4(%esp), %eax
	shrl	%cl, 8(%esp)
	subl	40(%esp), %esi
	testb	$64, %bl
	movl	%edx, 7108(%eax)
	je	.L329
	movl	128(%esp), %eax
	movl	$.LC20, 24(%eax)
	movl	4(%esp), %eax
	movl	$29, (%eax)
	movl	$29, %eax
	jmp	.L707
	.p2align 4,,10
	.p2align 3
.L795:
	shrl	%cl, %ebx
	movl	36(%esp), %ecx
	movl	4(%esp), %ebp
	subl	%eax, %esi
	movl	%ecx, %eax
	addl	$1, %eax
	movl	%eax, 104(%ebp)
	movl	%eax, 36(%esp)
	movw	%dx, 112(%ebp,%ecx,2)
	movl	44(%esp), %edx
	jmp	.L258
.L238:
	movl	$16, (%ebx)
	movl	$16, %eax
	jmp	.L241
.L184:
	testl	$57344, 8(%esp)
	je	.L185
	movl	128(%esp), %eax
	movl	%ebx, %ebp
	movl	$.LC9, 24(%eax)
	movl	4(%esp), %eax
	movl	$29, (%eax)
	movl	$29, %eax
	jmp	.L707
.L245:
	cmpl	$6, 132(%esp)
	movl	4(%esp), %esi
	movl	%ebx, %ebp
	movl	%eax, 64(%esi)
	movl	$14, (%esi)
	je	.L418
	xorl	%esi, %esi
	movl	$0, 8(%esp)
	jmp	.L157
.L403:
	xorl	%eax, %eax
	jmp	.L210
.L443:
	movl	128(%esp), %eax
	movl	32(%esp), %ebp
	movl	$.LC13, 24(%eax)
	movl	4(%esp), %eax
	movl	$29, (%eax)
	movl	$29, %eax
	jmp	.L707
	.p2align 4,,10
	.p2align 3
.L779:
	movl	%esi, %ebx
	movl	%edi, 8(%esp)
	movl	%ecx, %esi
	movl	4(%esp), %edi
	jmp	.L148
	.p2align 4,,10
	.p2align 3
.L435:
	movl	%ebx, %ebp
	movl	4(%esp), %edi
	movl	%ecx, %esi
	xorl	%ebx, %ebx
	jmp	.L148
	.p2align 4,,10
	.p2align 3
.L778:
	movl	%edi, %ebx
	movl	%esi, 8(%esp)
	movl	4(%esp), %edi
	movl	%ecx, %esi
	jmp	.L148
	.p2align 4,,10
	.p2align 3
.L793:
	subl	$4, %esp
	.cfi_def_cfa_offset 132
	pushl	%ebx
	.cfi_def_cfa_offset 136
	pushl	%ebp
	.cfi_def_cfa_offset 140
	movl	16(%esp), %eax
	pushl	24(%eax)
	.cfi_def_cfa_offset 144
	call	crc32
	movl	20(%esp), %edx
	addl	$16, %esp
	.cfi_def_cfa_offset 128
	movl	%eax, 24(%edx)
	jmp	.L227
	.p2align 4,,10
	.p2align 3
.L802:
	subl	$4, %esp
	.cfi_def_cfa_offset 132
	pushl	%ebx
	.cfi_def_cfa_offset 136
	pushl	%ebp
	.cfi_def_cfa_offset 140
	movl	16(%esp), %eax
	pushl	24(%eax)
	.cfi_def_cfa_offset 144
	call	crc32
	movl	20(%esp), %edx
	addl	$16, %esp
	.cfi_def_cfa_offset 128
	movl	%eax, 24(%edx)
	jmp	.L221
.L170:
	movl	%ebx, %ebp
	movl	4(%esp), %edi
	movl	%ecx, %esi
	xorl	%ebx, %ebx
	jmp	.L148
	.p2align 4,,10
	.p2align 3
.L337:
	movl	4(%esp), %ebx
	subl	%ecx, %eax
	addl	52(%ebx), %eax
	movl	%eax, 32(%esp)
	movl	%ebx, %eax
	jmp	.L338
	.p2align 4,,10
	.p2align 3
.L303:
	testb	$-16, %bl
	je	.L305
	movl	%edx, %ecx
	movl	4(%esp), %edx
	subl	%eax, %esi
	shrl	%cl, 8(%esp)
	movl	%eax, 7108(%edx)
	movzwl	36(%esp), %eax
	movl	%eax, 64(%edx)
.L306:
	testb	$32, %bl
	je	.L311
	movl	4(%esp), %eax
	movl	$-1, 7108(%eax)
	movl	$11, (%eax)
	movl	$11, %eax
	jmp	.L707
	.p2align 4,,10
	.p2align 3
.L329:
	movl	%eax, %edx
	movzwl	32(%esp), %eax
	andl	$15, %ebx
	movl	%ebx, 72(%edx)
	movl	$23, (%edx)
	movl	%eax, 68(%edx)
	jmp	.L151
	.p2align 4,,10
	.p2align 3
.L342:
	movl	32(%esp), %eax
	movl	12(%esp), %edx
	movl	%ebx, 32(%esp)
	leal	(%eax,%ebx), %ecx
	.p2align 4,,10
	.p2align 3
.L347:
	addl	$1, %eax
	movzbl	-1(%eax), %ebx
	addl	$1, %edx
	cmpl	%ecx, %eax
	movb	%bl, -1(%edx)
	jne	.L347
	movl	32(%esp), %ebx
	jmp	.L348
.L799:
	movl	8(%esp), %esi
	subl	$4, %esp
	.cfi_def_cfa_offset 132
	movl	%esi, %eax
	movb	%al, 96(%esp)
	movl	%esi, %eax
	shrl	$8, %eax
	movb	%al, 97(%esp)
	pushl	$2
	.cfi_def_cfa_offset 136
	leal	100(%esp), %eax
	pushl	%eax
	.cfi_def_cfa_offset 140
	movl	16(%esp), %esi
	pushl	24(%esi)
	.cfi_def_cfa_offset 144
	call	crc32
	addl	$16, %esp
	.cfi_def_cfa_offset 128
	movl	%eax, 24(%esi)
	movl	16(%esi), %eax
	jmp	.L201
.L781:
	movl	%ebx, 8(%esp)
	movl	%ebp, %ebx
	movl	%edi, %ebp
	movl	4(%esp), %edi
	jmp	.L148
.L305:
	movzwl	36(%esp), %ecx
	movl	%ecx, 36(%esp)
	leal	(%ebx,%eax), %ecx
	movl	$1, %ebx
	sall	%cl, %ebx
	movl	%edx, %ecx
	leal	-1(%ebx), %ebx
	movl	%ebx, 44(%esp)
	andl	8(%esp), %ebx
	shrl	%cl, %ebx
	movl	36(%esp), %ecx
	leal	(%ebx,%ecx), %edx
	movl	32(%esp), %ebx
	leal	(%ebx,%edx,4), %edx
	movzwl	2(%edx), %ecx
	movzbl	(%edx), %ebx
	movzbl	1(%edx), %edx
	movw	%cx, 40(%esp)
	leal	(%eax,%edx), %ecx
	movl	%edx, 60(%esp)
	cmpl	%ecx, %esi
	movl	%ecx, 64(%esp)
	jnb	.L307
	testl	%edi, %edi
	je	.L764
	movl	8(%esp), %ebx
	jmp	.L309
	.p2align 4,,10
	.p2align 3
.L310:
	testl	%edi, %edi
	je	.L750
.L309:
	addl	$1, %ebp
	movzbl	-1(%ebp), %edx
	movl	%esi, %ecx
	addl	$8, %esi
	subl	$1, %edi
	sall	%cl, %edx
	movl	%eax, %ecx
	addl	%edx, %ebx
	movl	44(%esp), %edx
	andl	%ebx, %edx
	shrl	%cl, %edx
	addl	36(%esp), %edx
	movl	32(%esp), %ecx
	leal	(%ecx,%edx,4), %edx
	movzbl	(%edx), %ecx
	movb	%cl, 60(%esp)
	movzwl	2(%edx), %ecx
	movzbl	1(%edx), %edx
	movw	%cx, 40(%esp)
	leal	(%edx,%eax), %ecx
	cmpl	%esi, %ecx
	ja	.L310
	movl	%ebx, 8(%esp)
	movl	%ecx, 64(%esp)
	movzbl	60(%esp), %ebx
	movl	%edx, 60(%esp)
.L307:
	subl	%eax, %esi
	movl	%eax, %ecx
	movl	8(%esp), %edx
	movl	%esi, %eax
	movl	60(%esp), %esi
	shrl	%cl, %edx
	subl	%esi, %eax
	movl	%esi, %ecx
	shrl	%cl, %edx
	movl	%eax, %esi
	movzwl	40(%esp), %eax
	movl	%edx, 8(%esp)
	movl	64(%esp), %ecx
	testb	%bl, %bl
	movl	4(%esp), %edx
	movl	%ecx, 7108(%edx)
	movl	%eax, 64(%edx)
	jne	.L306
	jmp	.L304
	.p2align 4,,10
	.p2align 3
.L434:
	movl	%ecx, %esi
	movl	%edx, %edi
	jmp	.L361
.L178:
	movl	128(%esp), %eax
	movl	$.LC6, 24(%eax)
	movl	4(%esp), %eax
	movl	$29, (%eax)
	movl	$29, %eax
	jmp	.L707
.L240:
	cmpl	$6, 132(%esp)
	movl	4(%esp), %eax
	movl	$lenfix.3430, 76(%eax)
	movl	$9, 84(%eax)
	movl	$distfix.3431, 80(%eax)
	movl	$5, 88(%eax)
	movl	$19, (%eax)
	je	.L804
	movl	$19, %eax
	jmp	.L241
.L239:
	movl	128(%esp), %eax
	movl	$.LC11, 24(%eax)
	movl	4(%esp), %eax
	movl	$29, (%eax)
	movl	$29, %eax
	jmp	.L241
.L750:
	movl	%ebx, 8(%esp)
	movl	%edi, %ebx
	movl	4(%esp), %edi
	jmp	.L148
.L788:
	subl	$4, %esp
	.cfi_def_cfa_offset 132
	pushl	%ecx
	.cfi_def_cfa_offset 136
	movl	%ecx, 40(%esp)
	pushl	%ebp
	.cfi_def_cfa_offset 140
	movl	16(%esp), %ebx
	pushl	24(%ebx)
	.cfi_def_cfa_offset 144
	call	crc32
	addl	$16, %esp
	.cfi_def_cfa_offset 128
	movl	%eax, 24(%ebx)
	movl	32(%esp), %ecx
	jmp	.L216
.L311:
	testb	$64, %bl
	je	.L312
	movl	128(%esp), %eax
	movl	$.LC19, 24(%eax)
	movl	4(%esp), %eax
	movl	$29, (%eax)
	movl	$29, %eax
	jmp	.L707
.L786:
	movl	8(%esp), %esi
	subl	$4, %esp
	.cfi_def_cfa_offset 132
	movl	%esi, %eax
	movb	%al, 96(%esp)
	movl	%esi, %eax
	shrl	$8, %eax
	movb	%al, 97(%esp)
	movl	%esi, %eax
	shrl	$16, %eax
	movb	%al, 98(%esp)
	movl	%esi, %eax
	shrl	$24, %eax
	movb	%al, 99(%esp)
	pushl	$4
	.cfi_def_cfa_offset 136
	leal	100(%esp), %eax
	pushl	%eax
	.cfi_def_cfa_offset 140
	movl	16(%esp), %esi
	pushl	24(%esi)
	.cfi_def_cfa_offset 144
	call	crc32
	addl	$16, %esp
	.cfi_def_cfa_offset 128
	movl	%eax, 24(%esi)
	movl	4(%esp), %eax
	jmp	.L194
.L209:
	movl	8(%esp), %esi
	subl	$4, %esp
	.cfi_def_cfa_offset 132
	movl	%esi, %eax
	movb	%al, 96(%esp)
	movl	%esi, %eax
	shrl	$8, %eax
	movb	%al, 97(%esp)
	pushl	$2
	.cfi_def_cfa_offset 136
	leal	100(%esp), %eax
	pushl	%eax
	.cfi_def_cfa_offset 140
	movl	16(%esp), %esi
	pushl	24(%esi)
	.cfi_def_cfa_offset 144
	call	crc32
	movl	16(%esi), %ebx
	movl	%eax, 24(%esi)
	addl	$16, %esp
	.cfi_def_cfa_offset 128
	xorl	%esi, %esi
	movl	$0, 8(%esp)
	movl	%ebx, %eax
	andl	$1024, %eax
	jmp	.L210
.L396:
	movl	%edx, %edi
	jmp	.L166
.L416:
	movl	%ecx, %esi
	movl	%edx, %edi
	jmp	.L242
.L796:
	leal	2(%eax), %edx
	cmpl	%edx, %esi
	jnb	.L265
	testl	%edi, %edi
	movl	40(%esp), %ebp
	je	.L750
	movl	%esi, %ecx
	movl	%eax, %esi
	movl	%edx, %eax
	jmp	.L267
	.p2align 4,,10
	.p2align 3
.L268:
	testl	%edi, %edi
	je	.L744
.L267:
	addl	$1, %ebp
	movzbl	-1(%ebp), %edx
	subl	$1, %edi
	sall	%cl, %edx
	addl	$8, %ecx
	addl	%edx, %ebx
	cmpl	%eax, %ecx
	jb	.L268
	movl	%esi, %eax
	movl	%ebp, 40(%esp)
	movl	%ecx, %esi
.L265:
	movl	%eax, %ecx
	subl	%eax, %esi
	movl	36(%esp), %eax
	shrl	%cl, %ebx
	testl	%eax, %eax
	je	.L281
	movl	36(%esp), %eax
	movl	4(%esp), %edx
	subl	$2, %esi
	addl	$55, %eax
	movzwl	(%edx,%eax,2), %eax
	movl	%ebx, %edx
	shrl	$2, %ebx
	andl	$3, %edx
	addl	$3, %edx
	jmp	.L271
.L406:
	movl	%ebp, 32(%esp)
	jmp	.L230
.L407:
	movl	%ecx, %esi
	movl	%edx, %edi
	jmp	.L230
.L735:
	movl	%edi, %ebx
	movl	%esi, 8(%esp)
	movl	32(%esp), %ebp
	movl	%ecx, %esi
	movl	4(%esp), %edi
	jmp	.L148
.L272:
	leal	3(%eax), %edx
	cmpl	%edx, %esi
	jnb	.L275
	testl	%edi, %edi
	movl	40(%esp), %ebp
	je	.L750
	movl	%esi, %ecx
	movl	%eax, %esi
	movl	%edx, %eax
	jmp	.L277
	.p2align 4,,10
	.p2align 3
.L278:
	testl	%edi, %edi
	je	.L744
.L277:
	addl	$1, %ebp
	movzbl	-1(%ebp), %edx
	subl	$1, %edi
	sall	%cl, %edx
	addl	$8, %ecx
	addl	%edx, %ebx
	cmpl	%eax, %ecx
	jb	.L278
	movl	%esi, %eax
	movl	%ebp, 40(%esp)
	movl	%ecx, %esi
.L275:
	movl	%eax, %ecx
	shrl	%cl, %ebx
	movl	$-3, %ecx
	movl	%ebx, %edx
	subl	%eax, %ecx
	shrl	$3, %ebx
	andl	$7, %edx
	addl	%ecx, %esi
	xorl	%eax, %eax
	addl	$3, %edx
	jmp	.L271
.L312:
	movl	4(%esp), %eax
	andl	$15, %ebx
	movl	%ebx, 72(%eax)
	movl	$21, (%eax)
	jmp	.L152
.L409:
	movl	%ebp, %edx
	jmp	.L236
.L185:
	movl	4(%esp), %eax
	movl	32(%eax), %eax
	testl	%eax, %eax
	je	.L186
	movl	8(%esp), %edx
	shrl	$8, %edx
	andl	$1, %edx
	movl	%edx, (%eax)
.L186:
	testl	$512, 8(%esp)
	jne	.L805
.L187:
	movl	4(%esp), %eax
	movl	%ebx, %ebp
	movl	$0, 8(%esp)
	xorl	%esi, %esi
	movl	$2, (%eax)
	jmp	.L188
.L763:
	movl	%edi, %ebx
	movl	4(%esp), %edi
.L359:
	movl	$28, (%edi)
	movl	$1, 28(%esp)
	jmp	.L148
.L797:
	movl	64(%esp), %ebp
	testl	%ebp, %ebp
	jne	.L806
	movl	%edx, %eax
	movl	%edx, 76(%esp)
	subl	$2, %eax
	shrl	%eax
	addl	$1, %eax
	movl	%eax, 32(%esp)
	addl	%eax, %eax
	movl	%eax, 72(%esp)
.L383:
	movzwl	8(%esp), %edx
	movl	40(%esp), %ebp
	movl	%edx, %eax
	sall	$16, %eax
	orl	%eax, %edx
	movl	64(%esp), %eax
	addl	%ecx, %eax
	movl	4(%esp), %ecx
	leal	(%ecx,%eax,2), %ecx
	xorl	%eax, %eax
.L290:
	movl	%edx, (%ecx,%eax,4)
	addl	$1, %eax
	cmpl	32(%esp), %eax
	jb	.L290
	movl	72(%esp), %edx
	addl	%edx, 36(%esp)
	cmpl	76(%esp), %edx
	movl	%ebp, 40(%esp)
	je	.L288
.L289:
	movzwl	8(%esp), %ecx
	movl	4(%esp), %eax
	movl	36(%esp), %edx
	movw	%cx, 112(%eax,%edx,2)
	jmp	.L288
.L355:
	subl	$4, %esp
	.cfi_def_cfa_offset 132
	pushl	%eax
	.cfi_def_cfa_offset 136
	movl	20(%esp), %edx
	subl	%eax, %edx
	pushl	%edx
	.cfi_def_cfa_offset 140
	movl	16(%esp), %eax
	pushl	24(%eax)
	.cfi_def_cfa_offset 144
	call	adler32
	addl	$16, %esp
	.cfi_def_cfa_offset 128
	jmp	.L356
.L427:
	movl	%ecx, %esi
	movl	%edx, %edi
	jmp	.L351
.L798:
	movl	4(%esp), %eax
	movl	$0, 36(%esp)
	movl	$0, 104(%eax)
	movl	$18, (%eax)
	movl	%eax, %ebx
	jmp	.L153
.L411:
	movl	%ebp, %ebx
	jmp	.L242
.L398:
	movl	%ebp, %ebx
	jmp	.L168
.L390:
	movl	%ebp, 32(%esp)
	movl	8(%esp), %ecx
	jmp	.L162
.L391:
	movl	%ecx, %esi
	movl	%edx, %edi
	movl	8(%esp), %ecx
	jmp	.L162
.L399:
	movl	%ecx, %esi
	movl	%edx, %edi
	jmp	.L168
.L397:
	movl	%ebx, %ebp
	movl	4(%esp), %edi
	xorl	%ebx, %ebx
	jmp	.L148
.L292:
	movl	4(%esp), %eax
	movl	40(%esp), %ebp
	movl	%ebx, 8(%esp)
	cmpw	$0, 624(%eax)
	jne	.L295
	movl	128(%esp), %ebx
	movl	$.LC16, 24(%ebx)
	movl	$29, (%eax)
	movl	$29, %eax
	jmp	.L707
.L775:
	movl	%edi, %ebx
	movl	12(%esp), %edx
	movl	%eax, %edi
	movl	128(%esp), %eax
	movl	%edx, 12(%eax)
	movl	16(%esp), %edx
	movl	%ebp, (%eax)
	movl	%ebx, 4(%eax)
	movl	%edx, 16(%eax)
	movl	8(%esp), %eax
	movl	%esi, 60(%edi)
	movl	%eax, 56(%edi)
	movl	$2, %eax
	jmp	.L611
.L805:
	movl	8(%esp), %esi
	subl	$4, %esp
	.cfi_def_cfa_offset 132
	movl	%esi, %eax
	movb	%al, 96(%esp)
	movl	%esi, %eax
	shrl	$8, %eax
	movb	%al, 97(%esp)
	pushl	$2
	.cfi_def_cfa_offset 136
	leal	100(%esp), %eax
	pushl	%eax
	.cfi_def_cfa_offset 140
	movl	16(%esp), %esi
	pushl	24(%esi)
	.cfi_def_cfa_offset 144
	call	crc32
	addl	$16, %esp
	.cfi_def_cfa_offset 128
	movl	%eax, 24(%esi)
	jmp	.L187
.L422:
	movl	%ebp, %ebx
	jmp	.L351
.L400:
	movl	%ecx, %esi
	movl	32(%esp), %edi
	jmp	.L173
.L794:
	subl	$4, %esp
	.cfi_def_cfa_offset 132
	pushl	$0
	.cfi_def_cfa_offset 136
	pushl	$0
	.cfi_def_cfa_offset 140
	pushl	$0
	.cfi_def_cfa_offset 144
	call	crc32
	movl	20(%esp), %esi
	movb	$31, 108(%esp)
	movb	$-117, 109(%esp)
	addl	$12, %esp
	.cfi_def_cfa_offset 132
	movl	%eax, 24(%esi)
	pushl	$2
	.cfi_def_cfa_offset 136
	leal	100(%esp), %edx
	pushl	%edx
	.cfi_def_cfa_offset 140
	pushl	%eax
	.cfi_def_cfa_offset 144
	call	crc32
	addl	$16, %esp
	.cfi_def_cfa_offset 128
	movl	%eax, 24(%esi)
	movl	$1, (%esi)
	movl	$1, %eax
	xorl	%esi, %esi
	movl	$0, 8(%esp)
	jmp	.L707
.L436:
	movl	%edi, %ebx
	xorl	%esi, %esi
	movl	4(%esp), %edi
	movl	$0, 8(%esp)
	jmp	.L359
.L180:
	shrl	$4, 8(%esp)
	movl	8(%esp), %eax
	andl	$15, %eax
	movl	%eax, %ecx
	movl	4(%esp), %eax
	addl	$8, %ecx
	movl	36(%eax), %eax
	testl	%eax, %eax
	jne	.L181
	movl	4(%esp), %eax
	movl	%ecx, 36(%eax)
.L182:
	movl	4(%esp), %esi
	movl	$1, %eax
	sall	%cl, %eax
	movl	%eax, 20(%esi)
	pushl	%eax
	.cfi_def_cfa_offset 132
	pushl	$0
	.cfi_def_cfa_offset 136
	pushl	$0
	.cfi_def_cfa_offset 140
	pushl	$0
	.cfi_def_cfa_offset 144
	call	adler32
	movl	24(%esp), %ecx
	movl	144(%esp), %ebx
	addl	$16, %esp
	.cfi_def_cfa_offset 128
	movl	%eax, 24(%esi)
	andl	$512, %ecx
	movl	%eax, 48(%ebx)
	movl	$0, 8(%esp)
	cmpl	$1, %ecx
	sbbl	%eax, %eax
	andl	$2, %eax
	addl	$9, %eax
	movl	%eax, (%esi)
	xorl	%esi, %esi
	jmp	.L117
.L295:
	movl	4(%esp), %edx
	movl	56(%esp), %ebx
	movl	%ebx, 108(%edx)
	movl	%ebx, 76(%edx)
	movl	%edx, %eax
	leal	108(%edx), %ebx
	addl	$84, %eax
	movl	$9, 84(%edx)
	pushl	%ecx
	.cfi_def_cfa_offset 132
	pushl	%ecx
	.cfi_def_cfa_offset 136
	pushl	60(%esp)
	.cfi_def_cfa_offset 140
	pushl	%eax
	.cfi_def_cfa_offset 144
	movl	%edx, %eax
	pushl	%ebx
	.cfi_def_cfa_offset 148
	pushl	80(%esp)
	.cfi_def_cfa_offset 152
	addl	$112, %eax
	movl	%edx, 28(%esp)
	pushl	%eax
	.cfi_def_cfa_offset 156
	pushl	$1
	.cfi_def_cfa_offset 160
	call	inflate_table
	movl	%eax, 60(%esp)
	addl	$32, %esp
	.cfi_def_cfa_offset 128
	testl	%eax, %eax
	je	.L296
	movl	4(%esp), %eax
	movl	128(%esp), %ebx
	movl	$.LC17, 24(%ebx)
	movl	$29, (%eax)
	movl	$29, %eax
	jmp	.L707
.L181:
	cmpl	%eax, %ecx
	jbe	.L182
	movl	128(%esp), %eax
	subl	$4, %esi
	movl	$.LC8, 24(%eax)
	movl	4(%esp), %eax
	movl	$29, (%eax)
	movl	$29, %eax
	jmp	.L707
.L281:
	movl	128(%esp), %eax
	movl	40(%esp), %ebp
	movl	%ebx, 8(%esp)
	movl	$.LC15, 24(%eax)
	movl	4(%esp), %eax
	movl	$29, (%eax)
	movl	$29, %eax
	jmp	.L707
.L418:
	movl	%edi, %ebx
	xorl	%esi, %esi
	movl	4(%esp), %edi
	movl	$0, 8(%esp)
	jmp	.L148
.L804:
	movl	%edi, %ebx
	shrl	$3, 8(%esp)
	movl	%eax, %edi
	subl	$3, %esi
	movl	%edx, %ebp
	jmp	.L148
.L296:
	movl	4(%esp), %edx
	movl	108(%edx), %eax
	movl	$6, 88(%edx)
	movl	%eax, 80(%edx)
	movl	%edx, %eax
	pushl	%ecx
	.cfi_def_cfa_offset 132
	addl	$88, %eax
	pushl	%ecx
	.cfi_def_cfa_offset 136
	pushl	60(%esp)
	.cfi_def_cfa_offset 140
	pushl	%eax
	.cfi_def_cfa_offset 144
	pushl	%ebx
	.cfi_def_cfa_offset 148
	pushl	100(%edx)
	.cfi_def_cfa_offset 152
	movl	96(%edx), %eax
	leal	112(%eax,%eax), %eax
	addl	%edx, %eax
	pushl	%eax
	.cfi_def_cfa_offset 156
	pushl	$2
	.cfi_def_cfa_offset 160
	call	inflate_table
	movl	%eax, 60(%esp)
	addl	$32, %esp
	.cfi_def_cfa_offset 128
	testl	%eax, %eax
	je	.L297
	movl	128(%esp), %eax
	movl	$.LC18, 24(%eax)
	movl	4(%esp), %eax
	movl	$29, (%eax)
	movl	$29, %eax
	jmp	.L707
.L806:
	movzwl	8(%esp), %ebp
	movl	4(%esp), %eax
	movl	$1, 64(%esp)
	movw	%bp, (%eax,%ecx,2)
	movl	36(%esp), %eax
	addl	$1, %eax
	movl	%eax, 36(%esp)
	leal	-1(%edx), %eax
	movl	%eax, %ebp
	movl	%eax, 76(%esp)
	leal	-3(%edx), %eax
	shrl	%eax
	addl	$1, %eax
	movl	%eax, 32(%esp)
	addl	%eax, %eax
	movl	%eax, 72(%esp)
	movl	%ebp, %eax
	subl	$1, %eax
	je	.L289
	jmp	.L383
	.cfi_endproc
.LFE30:
	.size	inflate, .-inflate
	.section	.text.unlikely
.LCOLDE24:
	.text
.LHOTE24:
	.section	.text.unlikely
.LCOLDB25:
	.text
.LHOTB25:
	.p2align 4,,15
	.globl	inflateEnd
	.type	inflateEnd, @function
inflateEnd:
.LFB31:
	.cfi_startproc
	pushl	%ebx
	.cfi_def_cfa_offset 8
	.cfi_offset 3, -8
	subl	$8, %esp
	.cfi_def_cfa_offset 16
	movl	16(%esp), %ebx
	testl	%ebx, %ebx
	je	.L812
	movl	28(%ebx), %eax
	testl	%eax, %eax
	je	.L812
	movl	36(%ebx), %edx
	testl	%edx, %edx
	je	.L812
	movl	52(%eax), %ecx
	testl	%ecx, %ecx
	je	.L809
	subl	$8, %esp
	.cfi_def_cfa_offset 24
	pushl	%ecx
	.cfi_def_cfa_offset 28
	pushl	40(%ebx)
	.cfi_def_cfa_offset 32
	call	*%edx
	movl	36(%ebx), %edx
	movl	28(%ebx), %eax
	addl	$16, %esp
	.cfi_def_cfa_offset 16
.L809:
	subl	$8, %esp
	.cfi_def_cfa_offset 24
	pushl	%eax
	.cfi_def_cfa_offset 28
	pushl	40(%ebx)
	.cfi_def_cfa_offset 32
	call	*%edx
	movl	$0, 28(%ebx)
	addl	$16, %esp
	.cfi_def_cfa_offset 16
	xorl	%eax, %eax
.L808:
	addl	$8, %esp
	.cfi_remember_state
	.cfi_def_cfa_offset 8
	popl	%ebx
	.cfi_restore 3
	.cfi_def_cfa_offset 4
	ret
	.p2align 4,,10
	.p2align 3
.L812:
	.cfi_restore_state
	movl	$-2, %eax
	jmp	.L808
	.cfi_endproc
.LFE31:
	.size	inflateEnd, .-inflateEnd
	.section	.text.unlikely
.LCOLDE25:
	.text
.LHOTE25:
	.section	.text.unlikely
.LCOLDB26:
	.text
.LHOTB26:
	.p2align 4,,15
	.globl	inflateGetDictionary
	.type	inflateGetDictionary, @function
inflateGetDictionary:
.LFB32:
	.cfi_startproc
	pushl	%edi
	.cfi_def_cfa_offset 8
	.cfi_offset 7, -8
	pushl	%esi
	.cfi_def_cfa_offset 12
	.cfi_offset 6, -12
	pushl	%ebx
	.cfi_def_cfa_offset 16
	.cfi_offset 3, -16
	movl	16(%esp), %eax
	movl	20(%esp), %esi
	movl	24(%esp), %edi
	testl	%eax, %eax
	je	.L821
	movl	28(%eax), %ebx
	testl	%ebx, %ebx
	je	.L821
	testl	%esi, %esi
	movl	44(%ebx), %eax
	je	.L819
	testl	%eax, %eax
	je	.L819
	movl	48(%ebx), %edx
	subl	$4, %esp
	.cfi_def_cfa_offset 20
	subl	%edx, %eax
	addl	52(%ebx), %edx
	pushl	%eax
	.cfi_def_cfa_offset 24
	pushl	%edx
	.cfi_def_cfa_offset 28
	pushl	%esi
	.cfi_def_cfa_offset 32
	call	memcpy
	movl	48(%ebx), %eax
	addl	$12, %esp
	.cfi_def_cfa_offset 20
	subl	%eax, %esi
	addl	44(%ebx), %esi
	pushl	%eax
	.cfi_def_cfa_offset 24
	pushl	52(%ebx)
	.cfi_def_cfa_offset 28
	pushl	%esi
	.cfi_def_cfa_offset 32
	call	memcpy
	addl	$16, %esp
	.cfi_def_cfa_offset 16
.L819:
	testl	%edi, %edi
	je	.L822
	movl	44(%ebx), %eax
	movl	%eax, (%edi)
	xorl	%eax, %eax
.L818:
	popl	%ebx
	.cfi_remember_state
	.cfi_restore 3
	.cfi_def_cfa_offset 12
	popl	%esi
	.cfi_restore 6
	.cfi_def_cfa_offset 8
	popl	%edi
	.cfi_restore 7
	.cfi_def_cfa_offset 4
	ret
	.p2align 4,,10
	.p2align 3
.L822:
	.cfi_restore_state
	xorl	%eax, %eax
	jmp	.L818
	.p2align 4,,10
	.p2align 3
.L821:
	movl	$-2, %eax
	jmp	.L818
	.cfi_endproc
.LFE32:
	.size	inflateGetDictionary, .-inflateGetDictionary
	.section	.text.unlikely
.LCOLDE26:
	.text
.LHOTE26:
	.section	.text.unlikely
.LCOLDB27:
	.text
.LHOTB27:
	.p2align 4,,15
	.globl	inflateSetDictionary
	.type	inflateSetDictionary, @function
inflateSetDictionary:
.LFB33:
	.cfi_startproc
	pushl	%ebp
	.cfi_def_cfa_offset 8
	.cfi_offset 5, -8
	pushl	%edi
	.cfi_def_cfa_offset 12
	.cfi_offset 7, -12
	pushl	%esi
	.cfi_def_cfa_offset 16
	.cfi_offset 6, -16
	pushl	%ebx
	.cfi_def_cfa_offset 20
	.cfi_offset 3, -20
	subl	$28, %esp
	.cfi_def_cfa_offset 48
	movl	48(%esp), %ebx
	movl	56(%esp), %edi
	testl	%ebx, %ebx
	je	.L845
	movl	28(%ebx), %ebp
	testl	%ebp, %ebp
	je	.L845
	movl	8(%ebp), %eax
	testl	%eax, %eax
	jne	.L850
	cmpl	$10, 0(%ebp)
	je	.L833
	movl	%ebp, %esi
.L834:
	movl	52(%esp), %eax
	addl	%edi, %eax
	movl	%eax, 12(%esp)
	movl	52(%esi), %eax
	testl	%eax, %eax
	je	.L851
.L835:
	movl	40(%esi), %ebx
	testl	%ebx, %ebx
	jne	.L837
	movl	36(%esi), %ecx
	movb	$1, %bl
	movl	$0, 48(%esi)
	movl	$0, 44(%esi)
	sall	%cl, %ebx
	movl	%ebx, 40(%esi)
.L837:
	cmpl	%ebx, %edi
	jnb	.L852
	movl	48(%esi), %ecx
	subl	%ecx, %ebx
	cmpl	%edi, %ebx
	jbe	.L840
	movl	%edi, %ebx
.L840:
	addl	%ecx, %eax
	movl	12(%esp), %ecx
	subl	$4, %esp
	.cfi_def_cfa_offset 52
	pushl	%ebx
	.cfi_def_cfa_offset 56
	subl	%edi, %ecx
	pushl	%ecx
	.cfi_def_cfa_offset 60
	pushl	%eax
	.cfi_def_cfa_offset 64
	call	memcpy
	addl	$16, %esp
	.cfi_def_cfa_offset 48
	subl	%ebx, %edi
	jne	.L853
	movl	48(%esi), %eax
	movl	40(%esi), %ecx
	addl	%ebx, %eax
	cmpl	%ecx, %eax
	movl	%eax, 48(%esi)
	je	.L854
.L842:
	movl	44(%esi), %eax
	cmpl	%eax, %ecx
	jbe	.L839
	addl	%eax, %ebx
	movl	%ebx, 44(%esi)
.L839:
	movl	$1, 12(%ebp)
	xorl	%eax, %eax
.L848:
	addl	$28, %esp
	.cfi_remember_state
	.cfi_def_cfa_offset 20
	popl	%ebx
	.cfi_restore 3
	.cfi_def_cfa_offset 16
	popl	%esi
	.cfi_restore 6
	.cfi_def_cfa_offset 12
	popl	%edi
	.cfi_restore 7
	.cfi_def_cfa_offset 8
	popl	%ebp
	.cfi_restore 5
	.cfi_def_cfa_offset 4
	ret
	.p2align 4,,10
	.p2align 3
.L850:
	.cfi_restore_state
	cmpl	$10, 0(%ebp)
	jne	.L845
.L833:
	subl	$4, %esp
	.cfi_def_cfa_offset 52
	pushl	$0
	.cfi_def_cfa_offset 56
	pushl	$0
	.cfi_def_cfa_offset 60
	pushl	$0
	.cfi_def_cfa_offset 64
	call	adler32
	addl	$12, %esp
	.cfi_def_cfa_offset 52
	pushl	%edi
	.cfi_def_cfa_offset 56
	pushl	60(%esp)
	.cfi_def_cfa_offset 60
	pushl	%eax
	.cfi_def_cfa_offset 64
	call	adler32
	addl	$16, %esp
	.cfi_def_cfa_offset 48
	cmpl	%eax, 24(%ebp)
	jne	.L847
	movl	28(%ebx), %esi
	jmp	.L834
	.p2align 4,,10
	.p2align 3
.L852:
	movl	12(%esp), %edx
	subl	$4, %esp
	.cfi_def_cfa_offset 52
	pushl	%ebx
	.cfi_def_cfa_offset 56
	subl	%ebx, %edx
	pushl	%edx
	.cfi_def_cfa_offset 60
	pushl	%eax
	.cfi_def_cfa_offset 64
	call	memcpy
	movl	40(%esi), %eax
	movl	$0, 48(%esi)
	addl	$16, %esp
	.cfi_def_cfa_offset 48
	movl	%eax, 44(%esi)
	jmp	.L839
	.p2align 4,,10
	.p2align 3
.L854:
	movl	$0, 48(%esi)
	jmp	.L842
	.p2align 4,,10
	.p2align 3
.L853:
	movl	12(%esp), %eax
	subl	$4, %esp
	.cfi_def_cfa_offset 52
	pushl	%edi
	.cfi_def_cfa_offset 56
	subl	%edi, %eax
	pushl	%eax
	.cfi_def_cfa_offset 60
	pushl	52(%esi)
	.cfi_def_cfa_offset 64
	call	memcpy
	movl	40(%esi), %eax
	movl	%edi, 48(%esi)
	addl	$16, %esp
	.cfi_def_cfa_offset 48
	movl	%eax, 44(%esi)
	jmp	.L839
	.p2align 4,,10
	.p2align 3
.L845:
	movl	$-2, %eax
	jmp	.L848
	.p2align 4,,10
	.p2align 3
.L851:
	subl	$4, %esp
	.cfi_def_cfa_offset 52
	movb	$1, %al
	pushl	$1
	.cfi_def_cfa_offset 56
	movl	36(%esi), %ecx
	sall	%cl, %eax
	pushl	%eax
	.cfi_def_cfa_offset 60
	pushl	40(%ebx)
	.cfi_def_cfa_offset 64
	call	*32(%ebx)
	addl	$16, %esp
	.cfi_def_cfa_offset 48
	testl	%eax, %eax
	movl	%eax, 52(%esi)
	jne	.L835
	movl	$30, 0(%ebp)
	movl	$-4, %eax
	jmp	.L848
	.p2align 4,,10
	.p2align 3
.L847:
	movl	$-3, %eax
	jmp	.L848
	.cfi_endproc
.LFE33:
	.size	inflateSetDictionary, .-inflateSetDictionary
	.section	.text.unlikely
.LCOLDE27:
	.text
.LHOTE27:
	.section	.text.unlikely
.LCOLDB28:
	.text
.LHOTB28:
	.p2align 4,,15
	.globl	inflateGetHeader
	.type	inflateGetHeader, @function
inflateGetHeader:
.LFB34:
	.cfi_startproc
	movl	4(%esp), %eax
	movl	8(%esp), %edx
	testl	%eax, %eax
	je	.L859
	movl	28(%eax), %eax
	testl	%eax, %eax
	je	.L859
	testb	$2, 8(%eax)
	je	.L859
	movl	%edx, 32(%eax)
	movl	$0, 48(%edx)
	xorl	%eax, %eax
	ret
	.p2align 4,,10
	.p2align 3
.L859:
	movl	$-2, %eax
	ret
	.cfi_endproc
.LFE34:
	.size	inflateGetHeader, .-inflateGetHeader
	.section	.text.unlikely
.LCOLDE28:
	.text
.LHOTE28:
	.section	.text.unlikely
.LCOLDB29:
	.text
.LHOTB29:
	.p2align 4,,15
	.globl	inflateSync
	.type	inflateSync, @function
inflateSync:
.LFB36:
	.cfi_startproc
	pushl	%ebp
	.cfi_def_cfa_offset 8
	.cfi_offset 5, -8
	pushl	%edi
	.cfi_def_cfa_offset 12
	.cfi_offset 7, -12
	pushl	%esi
	.cfi_def_cfa_offset 16
	.cfi_offset 6, -16
	pushl	%ebx
	.cfi_def_cfa_offset 20
	.cfi_offset 3, -20
	subl	$24, %esp
	.cfi_def_cfa_offset 44
	movl	44(%esp), %ebp
	testl	%ebp, %ebp
	je	.L880
	movl	28(%ebp), %ebx
	testl	%ebx, %ebx
	je	.L880
	movl	4(%ebp), %eax
	testl	%eax, %eax
	movl	%eax, %edi
	je	.L903
.L862:
	cmpl	$31, (%ebx)
	je	.L904
	movl	60(%ebx), %eax
	movl	56(%ebx), %edx
	movl	$31, (%ebx)
	movl	%eax, %ecx
	andl	$-8, %eax
	andl	$7, %ecx
	movl	%eax, 60(%ebx)
	sall	%cl, %edx
	cmpl	$7, %eax
	movl	%edx, 56(%ebx)
	jbe	.L882
	leal	-8(%eax), %edi
	movl	%edx, %ecx
	movb	%dl, 20(%esp)
	shrl	$8, %ecx
	cmpl	$7, %edi
	jbe	.L866
	leal	-16(%eax), %esi
	movb	%cl, 21(%esp)
	movl	%edx, %ecx
	shrl	$16, %ecx
	cmpl	$7, %esi
	jbe	.L866
	subl	$24, %eax
	shrl	$24, %edx
	movb	%cl, 22(%esp)
	cmpl	$7, %eax
	movl	%edx, %ecx
	jbe	.L866
	movb	%dl, 23(%esp)
	xorl	%ecx, %ecx
.L866:
	shrl	$3, %edi
	movl	%ecx, 56(%ebx)
	movl	$0, 60(%ebx)
	addl	$1, %edi
	xorl	%eax, %eax
	xorl	%edx, %edx
	movl	%ebx, %esi
	jmp	.L870
	.p2align 4,,10
	.p2align 3
.L906:
	movl	$4, %ebx
	subl	%eax, %ebx
	cmpl	$3, %ebx
	movl	%ebx, %eax
	setbe	%cl
.L869:
	addl	$1, %edx
	testb	%cl, %cl
	je	.L900
.L907:
	cmpl	%edi, %edx
	jnb	.L900
.L870:
	movzbl	20(%esp,%edx), %ebx
	cmpl	$2, %eax
	sbbl	%ecx, %ecx
	notl	%ecx
	cmpb	%cl, %bl
	je	.L905
	testb	%bl, %bl
	je	.L906
	movl	$1, %ecx
	xorl	%eax, %eax
	addl	$1, %edx
	testb	%cl, %cl
	jne	.L907
	.p2align 4,,10
	.p2align 3
.L900:
	movl	%esi, %ebx
.L865:
	movl	%eax, 104(%ebx)
	movl	4(%ebp), %esi
	movl	%esi, %edi
.L864:
	testl	%edi, %edi
	movl	0(%ebp), %esi
	setne	%dl
	andb	%cl, %dl
	movb	%dl, 3(%esp)
	movl	$0, %edx
	je	.L872
	movl	%ebx, 4(%esp)
	jmp	.L876
	.p2align 4,,10
	.p2align 3
.L909:
	movl	$4, %ebx
	subl	%eax, %ebx
	cmpl	$3, %ebx
	movl	%ebx, %eax
	setbe	%cl
.L875:
	addl	$1, %edx
	testb	%cl, %cl
	je	.L901
.L910:
	cmpl	%edx, %edi
	jbe	.L901
.L876:
	movzbl	(%esi,%edx), %ebx
	cmpl	$2, %eax
	sbbl	%ecx, %ecx
	notl	%ecx
	cmpb	%cl, %bl
	je	.L908
	testb	%bl, %bl
	je	.L909
	movzbl	3(%esp), %ecx
	xorl	%eax, %eax
	addl	$1, %edx
	testb	%cl, %cl
	jne	.L910
	.p2align 4,,10
	.p2align 3
.L901:
	movl	4(%esp), %ebx
.L872:
	movl	%eax, 104(%ebx)
	addl	%edx, %esi
	subl	%edx, 4(%ebp)
	addl	8(%ebp), %edx
	cmpl	$4, %eax
	movl	%esi, 0(%ebp)
	movl	%edx, 8(%ebp)
	jne	.L888
	movl	8(%ebx), %eax
	movl	20(%ebp), %ecx
	movl	$0, 40(%ebx)
	movl	$0, 44(%ebx)
	movl	$0, 48(%ebx)
	movl	$0, 28(%ebx)
	testl	%eax, %eax
	movl	$0, 20(%ebp)
	movl	$0, 8(%ebp)
	movl	$0, 24(%ebp)
	jne	.L911
.L878:
	leal	1328(%ebx), %eax
	movl	$0, 4(%ebx)
	movl	$0, 12(%ebx)
	movl	$32768, 20(%ebx)
	movl	$0, 32(%ebx)
	movl	%eax, 108(%ebx)
	movl	%eax, 80(%ebx)
	movl	%eax, 76(%ebx)
	movl	$0, 56(%ebx)
	xorl	%eax, %eax
	movl	$0, 60(%ebx)
	movl	$1, 7104(%ebx)
	movl	$-1, 7108(%ebx)
	movl	%edx, 8(%ebp)
	movl	%ecx, 20(%ebp)
	movl	$11, (%ebx)
.L861:
	addl	$24, %esp
	.cfi_remember_state
	.cfi_def_cfa_offset 20
	popl	%ebx
	.cfi_restore 3
	.cfi_def_cfa_offset 16
	popl	%esi
	.cfi_restore 6
	.cfi_def_cfa_offset 12
	popl	%edi
	.cfi_restore 7
	.cfi_def_cfa_offset 8
	popl	%ebp
	.cfi_restore 5
	.cfi_def_cfa_offset 4
	ret
	.p2align 4,,10
	.p2align 3
.L905:
	.cfi_restore_state
	addl	$1, %eax
	cmpl	$3, %eax
	setbe	%cl
	jmp	.L869
	.p2align 4,,10
	.p2align 3
.L908:
	addl	$1, %eax
	cmpl	$3, %eax
	setbe	%cl
	jmp	.L875
	.p2align 4,,10
	.p2align 3
.L903:
	cmpl	$7, 60(%ebx)
	ja	.L862
	movl	$-5, %eax
	jmp	.L861
	.p2align 4,,10
	.p2align 3
.L911:
	andl	$1, %eax
	movl	%eax, 48(%ebp)
	jmp	.L878
	.p2align 4,,10
	.p2align 3
.L904:
	movl	104(%ebx), %eax
	cmpl	$3, %eax
	setbe	%cl
	jmp	.L864
	.p2align 4,,10
	.p2align 3
.L888:
	addl	$24, %esp
	.cfi_remember_state
	.cfi_def_cfa_offset 20
	movl	$-3, %eax
	popl	%ebx
	.cfi_restore 3
	.cfi_def_cfa_offset 16
	popl	%esi
	.cfi_restore 6
	.cfi_def_cfa_offset 12
	popl	%edi
	.cfi_restore 7
	.cfi_def_cfa_offset 8
	popl	%ebp
	.cfi_restore 5
	.cfi_def_cfa_offset 4
	ret
	.p2align 4,,10
	.p2align 3
.L882:
	.cfi_restore_state
	movl	$1, %ecx
	xorl	%eax, %eax
	jmp	.L865
.L880:
	movl	$-2, %eax
	jmp	.L861
	.cfi_endproc
.LFE36:
	.size	inflateSync, .-inflateSync
	.section	.text.unlikely
.LCOLDE29:
	.text
.LHOTE29:
	.section	.text.unlikely
.LCOLDB30:
	.text
.LHOTB30:
	.p2align 4,,15
	.globl	inflateSyncPoint
	.type	inflateSyncPoint, @function
inflateSyncPoint:
.LFB37:
	.cfi_startproc
	movl	4(%esp), %eax
	testl	%eax, %eax
	je	.L915
	movl	28(%eax), %edx
	testl	%edx, %edx
	je	.L915
	xorl	%eax, %eax
	cmpl	$13, (%edx)
	je	.L917
	rep ret
	.p2align 4,,10
	.p2align 3
.L917:
	movl	60(%edx), %edx
	xorl	%eax, %eax
	testl	%edx, %edx
	sete	%al
	ret
	.p2align 4,,10
	.p2align 3
.L915:
	movl	$-2, %eax
	ret
	.cfi_endproc
.LFE37:
	.size	inflateSyncPoint, .-inflateSyncPoint
	.section	.text.unlikely
.LCOLDE30:
	.text
.LHOTE30:
	.section	.text.unlikely
.LCOLDB31:
	.text
.LHOTB31:
	.p2align 4,,15
	.globl	inflateCopy
	.type	inflateCopy, @function
inflateCopy:
.LFB38:
	.cfi_startproc
	pushl	%ebp
	.cfi_def_cfa_offset 8
	.cfi_offset 5, -8
	pushl	%edi
	.cfi_def_cfa_offset 12
	.cfi_offset 7, -12
	pushl	%esi
	.cfi_def_cfa_offset 16
	.cfi_offset 6, -16
	pushl	%ebx
	.cfi_def_cfa_offset 20
	.cfi_offset 3, -20
	subl	$28, %esp
	.cfi_def_cfa_offset 48
	movl	48(%esp), %ebx
	movl	52(%esp), %esi
	testl	%ebx, %ebx
	je	.L928
	testl	%esi, %esi
	je	.L928
	movl	28(%esi), %ebp
	testl	%ebp, %ebp
	je	.L928
	movl	32(%esi), %eax
	testl	%eax, %eax
	je	.L928
	movl	36(%esi), %edx
	testl	%edx, %edx
	je	.L928
	subl	$4, %esp
	.cfi_def_cfa_offset 52
	pushl	$7116
	.cfi_def_cfa_offset 56
	pushl	$1
	.cfi_def_cfa_offset 60
	pushl	40(%esi)
	.cfi_def_cfa_offset 64
	call	*%eax
	addl	$16, %esp
	.cfi_def_cfa_offset 48
	testl	%eax, %eax
	movl	%eax, %edx
	je	.L929
	movl	52(%ebp), %eax
	testl	%eax, %eax
	je	.L930
	movl	%edx, 12(%esp)
	subl	$4, %esp
	.cfi_def_cfa_offset 52
	movl	$1, %eax
	pushl	$1
	.cfi_def_cfa_offset 56
	movl	36(%ebp), %ecx
	sall	%cl, %eax
	pushl	%eax
	.cfi_def_cfa_offset 60
	pushl	40(%esi)
	.cfi_def_cfa_offset 64
	call	*32(%esi)
	movl	%eax, 24(%esp)
	addl	$16, %esp
	.cfi_def_cfa_offset 48
	testl	%eax, %eax
	movl	12(%esp), %edx
	je	.L935
.L920:
	movl	(%esi), %eax
	leal	4(%edx), %edi
	movl	%edx, %ecx
	andl	$-4, %edi
	movl	%eax, (%ebx)
	movl	4(%esi), %eax
	subl	%edi, %ecx
	movl	%eax, 4(%ebx)
	movl	8(%esi), %eax
	movl	%eax, 8(%ebx)
	movl	12(%esi), %eax
	movl	%eax, 12(%ebx)
	movl	16(%esi), %eax
	movl	%eax, 16(%ebx)
	movl	20(%esi), %eax
	movl	%eax, 20(%ebx)
	movl	24(%esi), %eax
	movl	%eax, 24(%ebx)
	movl	28(%esi), %eax
	movl	%eax, 28(%ebx)
	movl	32(%esi), %eax
	movl	%eax, 32(%ebx)
	movl	36(%esi), %eax
	movl	%eax, 36(%ebx)
	movl	40(%esi), %eax
	movl	%eax, 40(%ebx)
	movl	44(%esi), %eax
	movl	%eax, 44(%ebx)
	movl	48(%esi), %eax
	movl	%eax, 48(%ebx)
	movl	52(%esi), %eax
	movl	%ebp, %esi
	subl	%ecx, %esi
	addl	$7116, %ecx
	shrl	$2, %ecx
	movl	%eax, 52(%ebx)
	movl	0(%ebp), %eax
	movl	%eax, (%edx)
	movl	7112(%ebp), %eax
	movl	%eax, 7112(%edx)
	rep movsl
	movl	76(%ebp), %eax
	leal	1328(%ebp), %ecx
	cmpl	%ecx, %eax
	jnb	.L936
.L922:
	movl	108(%ebp), %eax
	movl	8(%esp), %edi
	subl	%ecx, %eax
	andl	$-4, %eax
	testl	%edi, %edi
	leal	1328(%eax,%edx), %eax
	movl	%eax, 108(%edx)
	je	.L924
	movl	36(%ebp), %ecx
	movl	$1, %eax
	movl	%edx, 12(%esp)
	subl	$4, %esp
	.cfi_def_cfa_offset 52
	sall	%cl, %eax
	pushl	%eax
	.cfi_def_cfa_offset 56
	pushl	52(%ebp)
	.cfi_def_cfa_offset 60
	pushl	%edi
	.cfi_def_cfa_offset 64
	call	memcpy
	addl	$16, %esp
	.cfi_def_cfa_offset 48
	movl	12(%esp), %edx
.L924:
	movl	8(%esp), %eax
	movl	%eax, 52(%edx)
	movl	%edx, 28(%ebx)
	xorl	%eax, %eax
.L919:
	addl	$28, %esp
	.cfi_remember_state
	.cfi_def_cfa_offset 20
	popl	%ebx
	.cfi_restore 3
	.cfi_def_cfa_offset 16
	popl	%esi
	.cfi_restore 6
	.cfi_def_cfa_offset 12
	popl	%edi
	.cfi_restore 7
	.cfi_def_cfa_offset 8
	popl	%ebp
	.cfi_restore 5
	.cfi_def_cfa_offset 4
	ret
	.p2align 4,,10
	.p2align 3
.L936:
	.cfi_restore_state
	leal	7100(%ebp), %esi
	cmpl	%esi, %eax
	ja	.L922
	subl	%ecx, %eax
	andl	$-4, %eax
	leal	1328(%eax,%edx), %eax
	movl	%eax, 76(%edx)
	movl	80(%ebp), %eax
	subl	%ecx, %eax
	andl	$-4, %eax
	leal	1328(%eax,%edx), %eax
	movl	%eax, 80(%edx)
	jmp	.L922
	.p2align 4,,10
	.p2align 3
.L930:
	movl	$0, 8(%esp)
	jmp	.L920
	.p2align 4,,10
	.p2align 3
.L928:
	movl	$-2, %eax
	jmp	.L919
.L929:
	movl	$-4, %eax
	jmp	.L919
.L935:
	subl	$8, %esp
	.cfi_def_cfa_offset 56
	pushl	%edx
	.cfi_def_cfa_offset 60
	pushl	40(%esi)
	.cfi_def_cfa_offset 64
	call	*36(%esi)
	addl	$16, %esp
	.cfi_def_cfa_offset 48
	movl	$-4, %eax
	jmp	.L919
	.cfi_endproc
.LFE38:
	.size	inflateCopy, .-inflateCopy
	.section	.text.unlikely
.LCOLDE31:
	.text
.LHOTE31:
	.section	.text.unlikely
.LCOLDB32:
	.text
.LHOTB32:
	.p2align 4,,15
	.globl	inflateUndermine
	.type	inflateUndermine, @function
inflateUndermine:
.LFB39:
	.cfi_startproc
	movl	4(%esp), %eax
	testl	%eax, %eax
	je	.L940
	movl	28(%eax), %eax
	testl	%eax, %eax
	je	.L940
	movl	$1, 7104(%eax)
	movl	$-3, %eax
	ret
	.p2align 4,,10
	.p2align 3
.L940:
	movl	$-2, %eax
	ret
	.cfi_endproc
.LFE39:
	.size	inflateUndermine, .-inflateUndermine
	.section	.text.unlikely
.LCOLDE32:
	.text
.LHOTE32:
	.section	.text.unlikely
.LCOLDB33:
	.text
.LHOTB33:
	.p2align 4,,15
	.globl	inflateMark
	.type	inflateMark, @function
inflateMark:
.LFB40:
	.cfi_startproc
	pushl	%ebx
	.cfi_def_cfa_offset 8
	.cfi_offset 3, -8
	movl	8(%esp), %eax
	testl	%eax, %eax
	je	.L946
	movl	28(%eax), %ecx
	testl	%ecx, %ecx
	je	.L946
	movl	7108(%ecx), %edx
	movl	(%ecx), %ebx
	sall	$16, %edx
	cmpl	$15, %ebx
	je	.L949
	xorl	%eax, %eax
	cmpl	$24, %ebx
	je	.L950
	addl	%edx, %eax
.L942:
	popl	%ebx
	.cfi_remember_state
	.cfi_restore 3
	.cfi_def_cfa_offset 4
	ret
	.p2align 4,,10
	.p2align 3
.L949:
	.cfi_restore_state
	movl	64(%ecx), %eax
	addl	%edx, %eax
	jmp	.L942
	.p2align 4,,10
	.p2align 3
.L950:
	movl	7112(%ecx), %eax
	subl	64(%ecx), %eax
	addl	%edx, %eax
	jmp	.L942
	.p2align 4,,10
	.p2align 3
.L946:
	movl	$-65536, %eax
	popl	%ebx
	.cfi_restore 3
	.cfi_def_cfa_offset 4
	ret
	.cfi_endproc
.LFE40:
	.size	inflateMark, .-inflateMark
	.section	.text.unlikely
.LCOLDE33:
	.text
.LHOTE33:
	.section	.rodata
	.align 64
	.type	distfix.3431, @object
	.size	distfix.3431, 128
distfix.3431:
	.byte	16
	.byte	5
	.value	1
	.byte	23
	.byte	5
	.value	257
	.byte	19
	.byte	5
	.value	17
	.byte	27
	.byte	5
	.value	4097
	.byte	17
	.byte	5
	.value	5
	.byte	25
	.byte	5
	.value	1025
	.byte	21
	.byte	5
	.value	65
	.byte	29
	.byte	5
	.value	16385
	.byte	16
	.byte	5
	.value	3
	.byte	24
	.byte	5
	.value	513
	.byte	20
	.byte	5
	.value	33
	.byte	28
	.byte	5
	.value	8193
	.byte	18
	.byte	5
	.value	9
	.byte	26
	.byte	5
	.value	2049
	.byte	22
	.byte	5
	.value	129
	.byte	64
	.byte	5
	.value	0
	.byte	16
	.byte	5
	.value	2
	.byte	23
	.byte	5
	.value	385
	.byte	19
	.byte	5
	.value	25
	.byte	27
	.byte	5
	.value	6145
	.byte	17
	.byte	5
	.value	7
	.byte	25
	.byte	5
	.value	1537
	.byte	21
	.byte	5
	.value	97
	.byte	29
	.byte	5
	.value	24577
	.byte	16
	.byte	5
	.value	4
	.byte	24
	.byte	5
	.value	769
	.byte	20
	.byte	5
	.value	49
	.byte	28
	.byte	5
	.value	12289
	.byte	18
	.byte	5
	.value	13
	.byte	26
	.byte	5
	.value	3073
	.byte	22
	.byte	5
	.value	193
	.byte	64
	.byte	5
	.value	0
	.align 64
	.type	lenfix.3430, @object
	.size	lenfix.3430, 2048
lenfix.3430:
	.byte	96
	.byte	7
	.value	0
	.byte	0
	.byte	8
	.value	80
	.byte	0
	.byte	8
	.value	16
	.byte	20
	.byte	8
	.value	115
	.byte	18
	.byte	7
	.value	31
	.byte	0
	.byte	8
	.value	112
	.byte	0
	.byte	8
	.value	48
	.byte	0
	.byte	9
	.value	192
	.byte	16
	.byte	7
	.value	10
	.byte	0
	.byte	8
	.value	96
	.byte	0
	.byte	8
	.value	32
	.byte	0
	.byte	9
	.value	160
	.byte	0
	.byte	8
	.value	0
	.byte	0
	.byte	8
	.value	128
	.byte	0
	.byte	8
	.value	64
	.byte	0
	.byte	9
	.value	224
	.byte	16
	.byte	7
	.value	6
	.byte	0
	.byte	8
	.value	88
	.byte	0
	.byte	8
	.value	24
	.byte	0
	.byte	9
	.value	144
	.byte	19
	.byte	7
	.value	59
	.byte	0
	.byte	8
	.value	120
	.byte	0
	.byte	8
	.value	56
	.byte	0
	.byte	9
	.value	208
	.byte	17
	.byte	7
	.value	17
	.byte	0
	.byte	8
	.value	104
	.byte	0
	.byte	8
	.value	40
	.byte	0
	.byte	9
	.value	176
	.byte	0
	.byte	8
	.value	8
	.byte	0
	.byte	8
	.value	136
	.byte	0
	.byte	8
	.value	72
	.byte	0
	.byte	9
	.value	240
	.byte	16
	.byte	7
	.value	4
	.byte	0
	.byte	8
	.value	84
	.byte	0
	.byte	8
	.value	20
	.byte	21
	.byte	8
	.value	227
	.byte	19
	.byte	7
	.value	43
	.byte	0
	.byte	8
	.value	116
	.byte	0
	.byte	8
	.value	52
	.byte	0
	.byte	9
	.value	200
	.byte	17
	.byte	7
	.value	13
	.byte	0
	.byte	8
	.value	100
	.byte	0
	.byte	8
	.value	36
	.byte	0
	.byte	9
	.value	168
	.byte	0
	.byte	8
	.value	4
	.byte	0
	.byte	8
	.value	132
	.byte	0
	.byte	8
	.value	68
	.byte	0
	.byte	9
	.value	232
	.byte	16
	.byte	7
	.value	8
	.byte	0
	.byte	8
	.value	92
	.byte	0
	.byte	8
	.value	28
	.byte	0
	.byte	9
	.value	152
	.byte	20
	.byte	7
	.value	83
	.byte	0
	.byte	8
	.value	124
	.byte	0
	.byte	8
	.value	60
	.byte	0
	.byte	9
	.value	216
	.byte	18
	.byte	7
	.value	23
	.byte	0
	.byte	8
	.value	108
	.byte	0
	.byte	8
	.value	44
	.byte	0
	.byte	9
	.value	184
	.byte	0
	.byte	8
	.value	12
	.byte	0
	.byte	8
	.value	140
	.byte	0
	.byte	8
	.value	76
	.byte	0
	.byte	9
	.value	248
	.byte	16
	.byte	7
	.value	3
	.byte	0
	.byte	8
	.value	82
	.byte	0
	.byte	8
	.value	18
	.byte	21
	.byte	8
	.value	163
	.byte	19
	.byte	7
	.value	35
	.byte	0
	.byte	8
	.value	114
	.byte	0
	.byte	8
	.value	50
	.byte	0
	.byte	9
	.value	196
	.byte	17
	.byte	7
	.value	11
	.byte	0
	.byte	8
	.value	98
	.byte	0
	.byte	8
	.value	34
	.byte	0
	.byte	9
	.value	164
	.byte	0
	.byte	8
	.value	2
	.byte	0
	.byte	8
	.value	130
	.byte	0
	.byte	8
	.value	66
	.byte	0
	.byte	9
	.value	228
	.byte	16
	.byte	7
	.value	7
	.byte	0
	.byte	8
	.value	90
	.byte	0
	.byte	8
	.value	26
	.byte	0
	.byte	9
	.value	148
	.byte	20
	.byte	7
	.value	67
	.byte	0
	.byte	8
	.value	122
	.byte	0
	.byte	8
	.value	58
	.byte	0
	.byte	9
	.value	212
	.byte	18
	.byte	7
	.value	19
	.byte	0
	.byte	8
	.value	106
	.byte	0
	.byte	8
	.value	42
	.byte	0
	.byte	9
	.value	180
	.byte	0
	.byte	8
	.value	10
	.byte	0
	.byte	8
	.value	138
	.byte	0
	.byte	8
	.value	74
	.byte	0
	.byte	9
	.value	244
	.byte	16
	.byte	7
	.value	5
	.byte	0
	.byte	8
	.value	86
	.byte	0
	.byte	8
	.value	22
	.byte	64
	.byte	8
	.value	0
	.byte	19
	.byte	7
	.value	51
	.byte	0
	.byte	8
	.value	118
	.byte	0
	.byte	8
	.value	54
	.byte	0
	.byte	9
	.value	204
	.byte	17
	.byte	7
	.value	15
	.byte	0
	.byte	8
	.value	102
	.byte	0
	.byte	8
	.value	38
	.byte	0
	.byte	9
	.value	172
	.byte	0
	.byte	8
	.value	6
	.byte	0
	.byte	8
	.value	134
	.byte	0
	.byte	8
	.value	70
	.byte	0
	.byte	9
	.value	236
	.byte	16
	.byte	7
	.value	9
	.byte	0
	.byte	8
	.value	94
	.byte	0
	.byte	8
	.value	30
	.byte	0
	.byte	9
	.value	156
	.byte	20
	.byte	7
	.value	99
	.byte	0
	.byte	8
	.value	126
	.byte	0
	.byte	8
	.value	62
	.byte	0
	.byte	9
	.value	220
	.byte	18
	.byte	7
	.value	27
	.byte	0
	.byte	8
	.value	110
	.byte	0
	.byte	8
	.value	46
	.byte	0
	.byte	9
	.value	188
	.byte	0
	.byte	8
	.value	14
	.byte	0
	.byte	8
	.value	142
	.byte	0
	.byte	8
	.value	78
	.byte	0
	.byte	9
	.value	252
	.byte	96
	.byte	7
	.value	0
	.byte	0
	.byte	8
	.value	81
	.byte	0
	.byte	8
	.value	17
	.byte	21
	.byte	8
	.value	131
	.byte	18
	.byte	7
	.value	31
	.byte	0
	.byte	8
	.value	113
	.byte	0
	.byte	8
	.value	49
	.byte	0
	.byte	9
	.value	194
	.byte	16
	.byte	7
	.value	10
	.byte	0
	.byte	8
	.value	97
	.byte	0
	.byte	8
	.value	33
	.byte	0
	.byte	9
	.value	162
	.byte	0
	.byte	8
	.value	1
	.byte	0
	.byte	8
	.value	129
	.byte	0
	.byte	8
	.value	65
	.byte	0
	.byte	9
	.value	226
	.byte	16
	.byte	7
	.value	6
	.byte	0
	.byte	8
	.value	89
	.byte	0
	.byte	8
	.value	25
	.byte	0
	.byte	9
	.value	146
	.byte	19
	.byte	7
	.value	59
	.byte	0
	.byte	8
	.value	121
	.byte	0
	.byte	8
	.value	57
	.byte	0
	.byte	9
	.value	210
	.byte	17
	.byte	7
	.value	17
	.byte	0
	.byte	8
	.value	105
	.byte	0
	.byte	8
	.value	41
	.byte	0
	.byte	9
	.value	178
	.byte	0
	.byte	8
	.value	9
	.byte	0
	.byte	8
	.value	137
	.byte	0
	.byte	8
	.value	73
	.byte	0
	.byte	9
	.value	242
	.byte	16
	.byte	7
	.value	4
	.byte	0
	.byte	8
	.value	85
	.byte	0
	.byte	8
	.value	21
	.byte	16
	.byte	8
	.value	258
	.byte	19
	.byte	7
	.value	43
	.byte	0
	.byte	8
	.value	117
	.byte	0
	.byte	8
	.value	53
	.byte	0
	.byte	9
	.value	202
	.byte	17
	.byte	7
	.value	13
	.byte	0
	.byte	8
	.value	101
	.byte	0
	.byte	8
	.value	37
	.byte	0
	.byte	9
	.value	170
	.byte	0
	.byte	8
	.value	5
	.byte	0
	.byte	8
	.value	133
	.byte	0
	.byte	8
	.value	69
	.byte	0
	.byte	9
	.value	234
	.byte	16
	.byte	7
	.value	8
	.byte	0
	.byte	8
	.value	93
	.byte	0
	.byte	8
	.value	29
	.byte	0
	.byte	9
	.value	154
	.byte	20
	.byte	7
	.value	83
	.byte	0
	.byte	8
	.value	125
	.byte	0
	.byte	8
	.value	61
	.byte	0
	.byte	9
	.value	218
	.byte	18
	.byte	7
	.value	23
	.byte	0
	.byte	8
	.value	109
	.byte	0
	.byte	8
	.value	45
	.byte	0
	.byte	9
	.value	186
	.byte	0
	.byte	8
	.value	13
	.byte	0
	.byte	8
	.value	141
	.byte	0
	.byte	8
	.value	77
	.byte	0
	.byte	9
	.value	250
	.byte	16
	.byte	7
	.value	3
	.byte	0
	.byte	8
	.value	83
	.byte	0
	.byte	8
	.value	19
	.byte	21
	.byte	8
	.value	195
	.byte	19
	.byte	7
	.value	35
	.byte	0
	.byte	8
	.value	115
	.byte	0
	.byte	8
	.value	51
	.byte	0
	.byte	9
	.value	198
	.byte	17
	.byte	7
	.value	11
	.byte	0
	.byte	8
	.value	99
	.byte	0
	.byte	8
	.value	35
	.byte	0
	.byte	9
	.value	166
	.byte	0
	.byte	8
	.value	3
	.byte	0
	.byte	8
	.value	131
	.byte	0
	.byte	8
	.value	67
	.byte	0
	.byte	9
	.value	230
	.byte	16
	.byte	7
	.value	7
	.byte	0
	.byte	8
	.value	91
	.byte	0
	.byte	8
	.value	27
	.byte	0
	.byte	9
	.value	150
	.byte	20
	.byte	7
	.value	67
	.byte	0
	.byte	8
	.value	123
	.byte	0
	.byte	8
	.value	59
	.byte	0
	.byte	9
	.value	214
	.byte	18
	.byte	7
	.value	19
	.byte	0
	.byte	8
	.value	107
	.byte	0
	.byte	8
	.value	43
	.byte	0
	.byte	9
	.value	182
	.byte	0
	.byte	8
	.value	11
	.byte	0
	.byte	8
	.value	139
	.byte	0
	.byte	8
	.value	75
	.byte	0
	.byte	9
	.value	246
	.byte	16
	.byte	7
	.value	5
	.byte	0
	.byte	8
	.value	87
	.byte	0
	.byte	8
	.value	23
	.byte	64
	.byte	8
	.value	0
	.byte	19
	.byte	7
	.value	51
	.byte	0
	.byte	8
	.value	119
	.byte	0
	.byte	8
	.value	55
	.byte	0
	.byte	9
	.value	206
	.byte	17
	.byte	7
	.value	15
	.byte	0
	.byte	8
	.value	103
	.byte	0
	.byte	8
	.value	39
	.byte	0
	.byte	9
	.value	174
	.byte	0
	.byte	8
	.value	7
	.byte	0
	.byte	8
	.value	135
	.byte	0
	.byte	8
	.value	71
	.byte	0
	.byte	9
	.value	238
	.byte	16
	.byte	7
	.value	9
	.byte	0
	.byte	8
	.value	95
	.byte	0
	.byte	8
	.value	31
	.byte	0
	.byte	9
	.value	158
	.byte	20
	.byte	7
	.value	99
	.byte	0
	.byte	8
	.value	127
	.byte	0
	.byte	8
	.value	63
	.byte	0
	.byte	9
	.value	222
	.byte	18
	.byte	7
	.value	27
	.byte	0
	.byte	8
	.value	111
	.byte	0
	.byte	8
	.value	47
	.byte	0
	.byte	9
	.value	190
	.byte	0
	.byte	8
	.value	15
	.byte	0
	.byte	8
	.value	143
	.byte	0
	.byte	8
	.value	79
	.byte	0
	.byte	9
	.value	254
	.byte	96
	.byte	7
	.value	0
	.byte	0
	.byte	8
	.value	80
	.byte	0
	.byte	8
	.value	16
	.byte	20
	.byte	8
	.value	115
	.byte	18
	.byte	7
	.value	31
	.byte	0
	.byte	8
	.value	112
	.byte	0
	.byte	8
	.value	48
	.byte	0
	.byte	9
	.value	193
	.byte	16
	.byte	7
	.value	10
	.byte	0
	.byte	8
	.value	96
	.byte	0
	.byte	8
	.value	32
	.byte	0
	.byte	9
	.value	161
	.byte	0
	.byte	8
	.value	0
	.byte	0
	.byte	8
	.value	128
	.byte	0
	.byte	8
	.value	64
	.byte	0
	.byte	9
	.value	225
	.byte	16
	.byte	7
	.value	6
	.byte	0
	.byte	8
	.value	88
	.byte	0
	.byte	8
	.value	24
	.byte	0
	.byte	9
	.value	145
	.byte	19
	.byte	7
	.value	59
	.byte	0
	.byte	8
	.value	120
	.byte	0
	.byte	8
	.value	56
	.byte	0
	.byte	9
	.value	209
	.byte	17
	.byte	7
	.value	17
	.byte	0
	.byte	8
	.value	104
	.byte	0
	.byte	8
	.value	40
	.byte	0
	.byte	9
	.value	177
	.byte	0
	.byte	8
	.value	8
	.byte	0
	.byte	8
	.value	136
	.byte	0
	.byte	8
	.value	72
	.byte	0
	.byte	9
	.value	241
	.byte	16
	.byte	7
	.value	4
	.byte	0
	.byte	8
	.value	84
	.byte	0
	.byte	8
	.value	20
	.byte	21
	.byte	8
	.value	227
	.byte	19
	.byte	7
	.value	43
	.byte	0
	.byte	8
	.value	116
	.byte	0
	.byte	8
	.value	52
	.byte	0
	.byte	9
	.value	201
	.byte	17
	.byte	7
	.value	13
	.byte	0
	.byte	8
	.value	100
	.byte	0
	.byte	8
	.value	36
	.byte	0
	.byte	9
	.value	169
	.byte	0
	.byte	8
	.value	4
	.byte	0
	.byte	8
	.value	132
	.byte	0
	.byte	8
	.value	68
	.byte	0
	.byte	9
	.value	233
	.byte	16
	.byte	7
	.value	8
	.byte	0
	.byte	8
	.value	92
	.byte	0
	.byte	8
	.value	28
	.byte	0
	.byte	9
	.value	153
	.byte	20
	.byte	7
	.value	83
	.byte	0
	.byte	8
	.value	124
	.byte	0
	.byte	8
	.value	60
	.byte	0
	.byte	9
	.value	217
	.byte	18
	.byte	7
	.value	23
	.byte	0
	.byte	8
	.value	108
	.byte	0
	.byte	8
	.value	44
	.byte	0
	.byte	9
	.value	185
	.byte	0
	.byte	8
	.value	12
	.byte	0
	.byte	8
	.value	140
	.byte	0
	.byte	8
	.value	76
	.byte	0
	.byte	9
	.value	249
	.byte	16
	.byte	7
	.value	3
	.byte	0
	.byte	8
	.value	82
	.byte	0
	.byte	8
	.value	18
	.byte	21
	.byte	8
	.value	163
	.byte	19
	.byte	7
	.value	35
	.byte	0
	.byte	8
	.value	114
	.byte	0
	.byte	8
	.value	50
	.byte	0
	.byte	9
	.value	197
	.byte	17
	.byte	7
	.value	11
	.byte	0
	.byte	8
	.value	98
	.byte	0
	.byte	8
	.value	34
	.byte	0
	.byte	9
	.value	165
	.byte	0
	.byte	8
	.value	2
	.byte	0
	.byte	8
	.value	130
	.byte	0
	.byte	8
	.value	66
	.byte	0
	.byte	9
	.value	229
	.byte	16
	.byte	7
	.value	7
	.byte	0
	.byte	8
	.value	90
	.byte	0
	.byte	8
	.value	26
	.byte	0
	.byte	9
	.value	149
	.byte	20
	.byte	7
	.value	67
	.byte	0
	.byte	8
	.value	122
	.byte	0
	.byte	8
	.value	58
	.byte	0
	.byte	9
	.value	213
	.byte	18
	.byte	7
	.value	19
	.byte	0
	.byte	8
	.value	106
	.byte	0
	.byte	8
	.value	42
	.byte	0
	.byte	9
	.value	181
	.byte	0
	.byte	8
	.value	10
	.byte	0
	.byte	8
	.value	138
	.byte	0
	.byte	8
	.value	74
	.byte	0
	.byte	9
	.value	245
	.byte	16
	.byte	7
	.value	5
	.byte	0
	.byte	8
	.value	86
	.byte	0
	.byte	8
	.value	22
	.byte	64
	.byte	8
	.value	0
	.byte	19
	.byte	7
	.value	51
	.byte	0
	.byte	8
	.value	118
	.byte	0
	.byte	8
	.value	54
	.byte	0
	.byte	9
	.value	205
	.byte	17
	.byte	7
	.value	15
	.byte	0
	.byte	8
	.value	102
	.byte	0
	.byte	8
	.value	38
	.byte	0
	.byte	9
	.value	173
	.byte	0
	.byte	8
	.value	6
	.byte	0
	.byte	8
	.value	134
	.byte	0
	.byte	8
	.value	70
	.byte	0
	.byte	9
	.value	237
	.byte	16
	.byte	7
	.value	9
	.byte	0
	.byte	8
	.value	94
	.byte	0
	.byte	8
	.value	30
	.byte	0
	.byte	9
	.value	157
	.byte	20
	.byte	7
	.value	99
	.byte	0
	.byte	8
	.value	126
	.byte	0
	.byte	8
	.value	62
	.byte	0
	.byte	9
	.value	221
	.byte	18
	.byte	7
	.value	27
	.byte	0
	.byte	8
	.value	110
	.byte	0
	.byte	8
	.value	46
	.byte	0
	.byte	9
	.value	189
	.byte	0
	.byte	8
	.value	14
	.byte	0
	.byte	8
	.value	142
	.byte	0
	.byte	8
	.value	78
	.byte	0
	.byte	9
	.value	253
	.byte	96
	.byte	7
	.value	0
	.byte	0
	.byte	8
	.value	81
	.byte	0
	.byte	8
	.value	17
	.byte	21
	.byte	8
	.value	131
	.byte	18
	.byte	7
	.value	31
	.byte	0
	.byte	8
	.value	113
	.byte	0
	.byte	8
	.value	49
	.byte	0
	.byte	9
	.value	195
	.byte	16
	.byte	7
	.value	10
	.byte	0
	.byte	8
	.value	97
	.byte	0
	.byte	8
	.value	33
	.byte	0
	.byte	9
	.value	163
	.byte	0
	.byte	8
	.value	1
	.byte	0
	.byte	8
	.value	129
	.byte	0
	.byte	8
	.value	65
	.byte	0
	.byte	9
	.value	227
	.byte	16
	.byte	7
	.value	6
	.byte	0
	.byte	8
	.value	89
	.byte	0
	.byte	8
	.value	25
	.byte	0
	.byte	9
	.value	147
	.byte	19
	.byte	7
	.value	59
	.byte	0
	.byte	8
	.value	121
	.byte	0
	.byte	8
	.value	57
	.byte	0
	.byte	9
	.value	211
	.byte	17
	.byte	7
	.value	17
	.byte	0
	.byte	8
	.value	105
	.byte	0
	.byte	8
	.value	41
	.byte	0
	.byte	9
	.value	179
	.byte	0
	.byte	8
	.value	9
	.byte	0
	.byte	8
	.value	137
	.byte	0
	.byte	8
	.value	73
	.byte	0
	.byte	9
	.value	243
	.byte	16
	.byte	7
	.value	4
	.byte	0
	.byte	8
	.value	85
	.byte	0
	.byte	8
	.value	21
	.byte	16
	.byte	8
	.value	258
	.byte	19
	.byte	7
	.value	43
	.byte	0
	.byte	8
	.value	117
	.byte	0
	.byte	8
	.value	53
	.byte	0
	.byte	9
	.value	203
	.byte	17
	.byte	7
	.value	13
	.byte	0
	.byte	8
	.value	101
	.byte	0
	.byte	8
	.value	37
	.byte	0
	.byte	9
	.value	171
	.byte	0
	.byte	8
	.value	5
	.byte	0
	.byte	8
	.value	133
	.byte	0
	.byte	8
	.value	69
	.byte	0
	.byte	9
	.value	235
	.byte	16
	.byte	7
	.value	8
	.byte	0
	.byte	8
	.value	93
	.byte	0
	.byte	8
	.value	29
	.byte	0
	.byte	9
	.value	155
	.byte	20
	.byte	7
	.value	83
	.byte	0
	.byte	8
	.value	125
	.byte	0
	.byte	8
	.value	61
	.byte	0
	.byte	9
	.value	219
	.byte	18
	.byte	7
	.value	23
	.byte	0
	.byte	8
	.value	109
	.byte	0
	.byte	8
	.value	45
	.byte	0
	.byte	9
	.value	187
	.byte	0
	.byte	8
	.value	13
	.byte	0
	.byte	8
	.value	141
	.byte	0
	.byte	8
	.value	77
	.byte	0
	.byte	9
	.value	251
	.byte	16
	.byte	7
	.value	3
	.byte	0
	.byte	8
	.value	83
	.byte	0
	.byte	8
	.value	19
	.byte	21
	.byte	8
	.value	195
	.byte	19
	.byte	7
	.value	35
	.byte	0
	.byte	8
	.value	115
	.byte	0
	.byte	8
	.value	51
	.byte	0
	.byte	9
	.value	199
	.byte	17
	.byte	7
	.value	11
	.byte	0
	.byte	8
	.value	99
	.byte	0
	.byte	8
	.value	35
	.byte	0
	.byte	9
	.value	167
	.byte	0
	.byte	8
	.value	3
	.byte	0
	.byte	8
	.value	131
	.byte	0
	.byte	8
	.value	67
	.byte	0
	.byte	9
	.value	231
	.byte	16
	.byte	7
	.value	7
	.byte	0
	.byte	8
	.value	91
	.byte	0
	.byte	8
	.value	27
	.byte	0
	.byte	9
	.value	151
	.byte	20
	.byte	7
	.value	67
	.byte	0
	.byte	8
	.value	123
	.byte	0
	.byte	8
	.value	59
	.byte	0
	.byte	9
	.value	215
	.byte	18
	.byte	7
	.value	19
	.byte	0
	.byte	8
	.value	107
	.byte	0
	.byte	8
	.value	43
	.byte	0
	.byte	9
	.value	183
	.byte	0
	.byte	8
	.value	11
	.byte	0
	.byte	8
	.value	139
	.byte	0
	.byte	8
	.value	75
	.byte	0
	.byte	9
	.value	247
	.byte	16
	.byte	7
	.value	5
	.byte	0
	.byte	8
	.value	87
	.byte	0
	.byte	8
	.value	23
	.byte	64
	.byte	8
	.value	0
	.byte	19
	.byte	7
	.value	51
	.byte	0
	.byte	8
	.value	119
	.byte	0
	.byte	8
	.value	55
	.byte	0
	.byte	9
	.value	207
	.byte	17
	.byte	7
	.value	15
	.byte	0
	.byte	8
	.value	103
	.byte	0
	.byte	8
	.value	39
	.byte	0
	.byte	9
	.value	175
	.byte	0
	.byte	8
	.value	7
	.byte	0
	.byte	8
	.value	135
	.byte	0
	.byte	8
	.value	71
	.byte	0
	.byte	9
	.value	239
	.byte	16
	.byte	7
	.value	9
	.byte	0
	.byte	8
	.value	95
	.byte	0
	.byte	8
	.value	31
	.byte	0
	.byte	9
	.value	159
	.byte	20
	.byte	7
	.value	99
	.byte	0
	.byte	8
	.value	127
	.byte	0
	.byte	8
	.value	63
	.byte	0
	.byte	9
	.value	223
	.byte	18
	.byte	7
	.value	27
	.byte	0
	.byte	8
	.value	111
	.byte	0
	.byte	8
	.value	47
	.byte	0
	.byte	9
	.value	191
	.byte	0
	.byte	8
	.value	15
	.byte	0
	.byte	8
	.value	143
	.byte	0
	.byte	8
	.value	79
	.byte	0
	.byte	9
	.value	255
	.align 32
	.type	order.3459, @object
	.size	order.3459, 38
order.3459:
	.value	16
	.value	17
	.value	18
	.value	0
	.value	8
	.value	7
	.value	9
	.value	6
	.value	10
	.value	5
	.value	11
	.value	4
	.value	12
	.value	3
	.value	13
	.value	2
	.value	14
	.value	1
	.value	15
	.hidden	inflate_fast
	.hidden	inflate_table
	.hidden	zcalloc
	.hidden	zcfree
	.ident	"GCC: (Debian 4.9.2-10) 4.9.2"
	.section	.note.GNU-stack,"",@progbits
