	.file	"bufferobject.c"
	.text
.Ltext0:
	.section	.rodata.str1.4,"aMS",@progbits,1
	.align 4
.LC0:
	.string	"single-segment buffer object expected"
	.text
	.p2align 4,,15
	.type	buffer_repeat, @function
buffer_repeat:
.LFB158:
	.file 1 "Objects/bufferobject.c"
	.loc 1 377 0
	.cfi_startproc
.LVL0:
	pushl	%ebp
	.cfi_def_cfa_offset 8
	.cfi_offset 5, -8
	pushl	%edi
	.cfi_def_cfa_offset 12
	.cfi_offset 7, -12
	pushl	%esi
	.cfi_def_cfa_offset 16
	.cfi_offset 6, -16
	pushl	%ebx
	.cfi_def_cfa_offset 20
	.cfi_offset 3, -20
	subl	$60, %esp
	.cfi_def_cfa_offset 80
	.loc 1 377 0
	movl	80(%esp), %ebx
	movl	84(%esp), %edi
.LVL1:
.LBB17:
.LBB18:
	.loc 1 21 0
	movl	8(%ebx), %eax
	testl	%eax, %eax
	je	.L22
.LBB19:
	.loc 1 29 0
	movl	4(%eax), %edx
	movl	80(%edx), %esi
.LVL2:
	.loc 1 30 0
	movl	$0, 4(%esp)
	movl	%eax, (%esp)
	call	*8(%esi)
.LVL3:
	cmpl	$1, %eax
	jne	.L23
	.loc 1 36 0
	movl	24(%ebx), %edx
	.loc 1 38 0
	movl	4(%esi), %eax
	.loc 1 36 0
	testl	%edx, %edx
	.loc 1 39 0
	leal	44(%esp), %edx
.LVL4:
	.loc 1 36 0
	cmovne	(%esi), %eax
.LVL5:
	.loc 1 39 0
	movl	%edx, 8(%esp)
	movl	$0, 4(%esp)
	movl	8(%ebx), %edx
.LVL6:
	movl	%edx, (%esp)
	call	*%eax
.LVL7:
	testl	%eax, %eax
	js	.L5
	.loc 1 42 0
	movl	20(%ebx), %edx
	.loc 1 52 0
	movl	%eax, %ecx
	.loc 1 47 0
	movl	16(%ebx), %ebp
	cmpl	%edx, %eax
	cmovle	%eax, %edx
.LVL8:
	.loc 1 46 0
	addl	%edx, 44(%esp)
	.loc 1 47 0
	cmpl	$-1, %ebp
	cmove	%eax, %ebp
.LVL9:
	.loc 1 52 0
	subl	%edx, %ecx
	.loc 1 51 0
	leal	0(%ebp,%edx), %ebx
.LVL10:
	.loc 1 52 0
	cmpl	%ebx, %eax
	cmovl	%ecx, %ebp
.LVL11:
.L3:
	xorl	%esi, %esi
	testl	%edi, %edi
	cmovns	%edi, %esi
.LVL12:
.LBE19:
.LBE18:
.LBE17:
	.loc 1 387 0
	movl	%esi, %eax
	imull	%ebp, %eax
	movl	$0, (%esp)
	movl	%eax, 4(%esp)
	call	PyString_FromStringAndSize
.LVL13:
	.loc 1 388 0
	testl	%eax, %eax
	.loc 1 387 0
	movl	%eax, 28(%esp)
.LVL14:
	.loc 1 388 0
	je	.L5
	.loc 1 391 0
	addl	$20, %eax
.LVL15:
	.loc 1 392 0
	testl	%esi, %esi
	.loc 1 391 0
	movl	%eax, 24(%esp)
.LVL16:
	.loc 1 392 0
	je	.L8
	movl	%esi, %ebx
	.loc 1 391 0
	movl	%eax, %edi
.LVL17:
	.p2align 4,,7
	.p2align 3
.L10:
.LBB23:
.LBB24:
	.file 2 "/usr/include/bits/string3.h"
	.loc 2 51 0
	movl	44(%esp), %eax
	movl	%edi, (%esp)
.LBE24:
.LBE23:
	.loc 1 395 0
	addl	%ebp, %edi
.LVL18:
.LBB26:
.LBB25:
	.loc 2 51 0
	movl	%ebp, 8(%esp)
	movl	%eax, 4(%esp)
	call	memcpy
.LVL19:
.LBE25:
.LBE26:
	.loc 1 392 0
	subl	$1, %ebx
	jne	.L10
	imull	%ebp, %esi
	addl	%esi, 24(%esp)
	movl	24(%esp), %eax
.LVL20:
.L8:
	.loc 1 399 0
	movb	$0, (%eax)
	.loc 1 401 0
	movl	28(%esp), %eax
	.loc 1 402 0
	addl	$60, %esp
	.cfi_remember_state
	.cfi_def_cfa_offset 20
	popl	%ebx
	.cfi_restore 3
	.cfi_def_cfa_offset 16
	popl	%esi
	.cfi_restore 6
	.cfi_def_cfa_offset 12
	popl	%edi
	.cfi_restore 7
	.cfi_def_cfa_offset 8
	popl	%ebp
	.cfi_restore 5
	.cfi_def_cfa_offset 4
.LVL21:
	ret
.LVL22:
	.p2align 4,,7
	.p2align 3
.L23:
	.cfi_restore_state
.LBB27:
.LBB21:
.LBB20:
	.loc 1 31 0
	movl	PyExc_TypeError, %eax
	movl	$.LC0, 4(%esp)
	movl	%eax, (%esp)
	call	PyErr_SetString
.LVL23:
.L5:
.LBE20:
.LBE21:
.LBE27:
	.loc 1 402 0
	addl	$60, %esp
	.cfi_remember_state
	.cfi_def_cfa_offset 20
	.loc 1 386 0
	xorl	%eax, %eax
	.loc 1 402 0
	popl	%ebx
	.cfi_restore 3
	.cfi_def_cfa_offset 16
	popl	%esi
	.cfi_restore 6
	.cfi_def_cfa_offset 12
	popl	%edi
	.cfi_restore 7
	.cfi_def_cfa_offset 8
.LVL24:
	popl	%ebp
	.cfi_restore 5
	.cfi_def_cfa_offset 4
	ret
.LVL25:
	.p2align 4,,7
	.p2align 3
.L22:
	.cfi_restore_state
.LBB28:
.LBB22:
	.loc 1 23 0
	movl	12(%ebx), %eax
	.loc 1 24 0
	movl	16(%ebx), %ebp
.LVL26:
	.loc 1 23 0
	movl	%eax, 44(%esp)
	jmp	.L3
.LBE22:
.LBE28:
	.cfi_endproc
.LFE158:
	.size	buffer_repeat, .-buffer_repeat
	.section	.rodata.str1.1,"aMS",@progbits,1
.LC1:
	.string	"read-only"
.LC2:
	.string	"read-write"
	.section	.rodata.str1.4
	.align 4
.LC3:
	.string	"<%s buffer ptr %p, size %d at %p>"
	.align 4
.LC4:
	.string	"<%s buffer for %p, size %d, offset %d at %p>"
	.text
	.p2align 4,,15
	.type	buffer_repr, @function
buffer_repr:
.LFB153:
	.loc 1 244 0
	.cfi_startproc
.LVL27:
	pushl	%ebx
	.cfi_def_cfa_offset 8
	.cfi_offset 3, -8
	.loc 1 245 0
	movl	$.LC1, %edx
	.loc 1 244 0
	subl	$40, %esp
	.cfi_def_cfa_offset 48
	.loc 1 244 0
	movl	48(%esp), %eax
	.loc 1 245 0
	movl	24(%eax), %ecx
	testl	%ecx, %ecx
	movl	$.LC2, %ecx
	cmove	%ecx, %edx
.LVL28:
	.loc 1 247 0
	movl	8(%eax), %ecx
	testl	%ecx, %ecx
	je	.L30
	.loc 1 254 0
	movl	%eax, 20(%esp)
	movl	20(%eax), %ebx
	movl	%ebx, 16(%esp)
	movl	16(%eax), %eax
	movl	%ecx, 8(%esp)
	movl	%edx, 4(%esp)
	movl	$.LC4, (%esp)
	movl	%eax, 12(%esp)
	call	PyString_FromFormat
.LVL29:
	.loc 1 261 0
	addl	$40, %esp
	.cfi_remember_state
	.cfi_def_cfa_offset 8
	popl	%ebx
	.cfi_restore 3
	.cfi_def_cfa_offset 4
	ret
.LVL30:
	.p2align 4,,7
	.p2align 3
.L30:
	.cfi_restore_state
	.loc 1 248 0
	movl	%eax, 16(%esp)
	movl	16(%eax), %ecx
	movl	%ecx, 12(%esp)
	movl	12(%eax), %eax
	movl	%edx, 4(%esp)
	movl	$.LC3, (%esp)
	movl	%eax, 8(%esp)
	call	PyString_FromFormat
.LVL31:
	.loc 1 261 0
	addl	$40, %esp
	.cfi_def_cfa_offset 8
	popl	%ebx
	.cfi_restore 3
	.cfi_def_cfa_offset 4
	ret
	.cfi_endproc
.LFE153:
	.size	buffer_repr, .-buffer_repr
	.p2align 4,,15
	.type	buffer_dealloc, @function
buffer_dealloc:
.LFB151:
	.loc 1 218 0
	.cfi_startproc
.LVL32:
	pushl	%ebx
	.cfi_def_cfa_offset 8
	.cfi_offset 3, -8
	subl	$24, %esp
	.cfi_def_cfa_offset 32
	.loc 1 218 0
	movl	32(%esp), %ebx
	.loc 1 219 0
	movl	8(%ebx), %eax
	testl	%eax, %eax
	je	.L33
	.loc 1 219 0 is_stmt 0 discriminator 1
	movl	(%eax), %ecx
	leal	-1(%ecx), %edx
	testl	%edx, %edx
	movl	%edx, (%eax)
	jne	.L33
	movl	8(%ebx), %eax
	movl	4(%eax), %edx
	movl	%eax, (%esp)
	call	*24(%edx)
.LVL33:
.L33:
	.loc 1 220 0 is_stmt 1
	movl	%ebx, 32(%esp)
	.loc 1 221 0
	addl	$24, %esp
	.cfi_def_cfa_offset 8
	popl	%ebx
	.cfi_restore 3
	.cfi_def_cfa_offset 4
	.loc 1 220 0
	jmp	PyObject_Free
.LVL34:
	.cfi_endproc
.LFE151:
	.size	buffer_dealloc, .-buffer_dealloc
	.section	.rodata.str1.1
.LC5:
	.string	"buffer()"
.LC6:
	.string	"O|ii:buffer"
.LC7:
	.string	"buffer object expected"
	.section	.rodata.str1.4
	.align 4
.LC8:
	.string	"offset must be zero or positive"
	.section	.rodata.str1.1
.LC9:
	.string	"size must be zero or positive"
	.text
	.p2align 4,,15
	.type	buffer_new, @function
buffer_new:
.LFB150:
	.loc 1 194 0
	.cfi_startproc
.LVL35:
	pushl	%edi
	.cfi_def_cfa_offset 8
	.cfi_offset 7, -8
	pushl	%esi
	.cfi_def_cfa_offset 12
	.cfi_offset 6, -12
	pushl	%ebx
	.cfi_def_cfa_offset 16
	.cfi_offset 3, -16
	subl	$48, %esp
	.cfi_def_cfa_offset 64
	.loc 1 199 0
	movl	72(%esp), %eax
	movl	$.LC5, (%esp)
	.loc 1 196 0
	movl	$0, 40(%esp)
	.loc 1 197 0
	movl	$-1, 44(%esp)
	.loc 1 199 0
	movl	%eax, 4(%esp)
	call	_PyArg_NoKeywords
.LVL36:
	testl	%eax, %eax
	je	.L67
	.loc 1 202 0
	leal	44(%esp), %eax
	movl	%eax, 16(%esp)
	leal	40(%esp), %eax
	movl	%eax, 12(%esp)
	leal	36(%esp), %eax
	movl	%eax, 8(%esp)
	movl	68(%esp), %eax
	movl	$.LC6, 4(%esp)
	movl	%eax, (%esp)
	call	PyArg_ParseTuple
.LVL37:
	testl	%eax, %eax
	je	.L67
	.loc 1 204 0
	movl	36(%esp), %ecx
	movl	44(%esp), %edi
	movl	40(%esp), %ebx
.LVL38:
.LBB43:
.LBB44:
	.loc 1 118 0
	movl	4(%ecx), %edx
	movl	80(%edx), %eax
.LVL39:
	.loc 1 120 0
	testl	%eax, %eax
	je	.L40
	movl	(%eax), %esi
	testl	%esi, %esi
	je	.L40
	.loc 1 121 0
	movl	8(%eax), %eax
.LVL40:
	testl	%eax, %eax
	je	.L40
.LVL41:
.LBB45:
.LBB46:
	.loc 1 93 0
	testl	%ebx, %ebx
	js	.L68
	.loc 1 98 0
	cmpl	$PyBuffer_Type, %edx
	je	.L69
.L45:
.LVL42:
.LBB47:
.LBB48:
	.loc 1 64 0
	cmpl	$-1, %edi
	jl	.L51
	movl	%ecx, %esi
.LVL43:
	.p2align 4,,7
	.p2align 3
.L50:
	.loc 1 75 0
	movl	PyBuffer_Type+16, %eax
	movl	%eax, (%esp)
.LVL44:
	call	PyObject_Malloc
.LVL45:
	movl	$PyBuffer_Type, 4(%esp)
	movl	%eax, (%esp)
	call	PyObject_Init
.LVL46:
	.loc 1 76 0
	testl	%eax, %eax
	je	.L67
	.loc 1 79 0
	addl	$1, (%esi)
	.loc 1 80 0
	movl	%esi, 8(%eax)
	.loc 1 81 0
	movl	$0, 12(%eax)
	.loc 1 82 0
	movl	%edi, 16(%eax)
	.loc 1 83 0
	movl	%ebx, 20(%eax)
	.loc 1 84 0
	movl	$1, 24(%eax)
	.loc 1 85 0
	movl	$-1, 28(%eax)
.LBE48:
.LBE47:
.LBE46:
.LBE45:
.LBE44:
.LBE43:
	.loc 1 205 0
	addl	$48, %esp
	.cfi_remember_state
	.cfi_def_cfa_offset 16
	popl	%ebx
	.cfi_restore 3
	.cfi_def_cfa_offset 12
.LVL47:
	popl	%esi
	.cfi_restore 6
	.cfi_def_cfa_offset 8
	popl	%edi
	.cfi_restore 7
	.cfi_def_cfa_offset 4
.LVL48:
	ret
.LVL49:
	.p2align 4,,7
	.p2align 3
.L69:
	.cfi_restore_state
.LBB64:
.LBB62:
.LBB60:
.LBB58:
	.loc 1 98 0
	movl	8(%ecx), %esi
	testl	%esi, %esi
	je	.L45
.LVL50:
.LBB53:
	.loc 1 101 0
	movl	16(%ecx), %eax
	cmpl	$-1, %eax
	je	.L46
.LVL51:
	xorl	%edx, %edx
.LVL52:
	subl	%ebx, %eax
.LVL53:
	cmovns	%eax, %edx
.LVL54:
.LBB54:
	.loc 1 105 0
	cmpl	%edx, %edi
	jg	.L47
	cmpl	$-1, %edi
	jne	.L46
.L47:
.LVL55:
.LBE54:
	.loc 1 108 0
	addl	20(%ecx), %ebx
.LVL56:
	movl	%edx, %edi
.LVL57:
.L48:
.LBE53:
.LBB55:
.LBB51:
	.loc 1 69 0
	testl	%ebx, %ebx
	jns	.L50
.LVL58:
.L68:
	.loc 1 70 0
	movl	PyExc_ValueError, %eax
	movl	$.LC8, 4(%esp)
.LVL59:
	movl	%eax, (%esp)
	call	PyErr_SetString
.LVL60:
	.p2align 4,,7
	.p2align 3
.L67:
	.loc 1 72 0
	xorl	%eax, %eax
.L65:
.LBE51:
.LBE55:
.LBE58:
.LBE60:
.LBE62:
.LBE64:
	.loc 1 205 0
	addl	$48, %esp
	.cfi_remember_state
	.cfi_def_cfa_offset 16
	popl	%ebx
	.cfi_restore 3
	.cfi_def_cfa_offset 12
	popl	%esi
	.cfi_restore 6
	.cfi_def_cfa_offset 8
	popl	%edi
	.cfi_restore 7
	.cfi_def_cfa_offset 4
	ret
.LVL61:
	.p2align 4,,7
	.p2align 3
.L46:
	.cfi_restore_state
.LBB65:
.LBB63:
.LBB61:
.LBB59:
.LBB56:
	.loc 1 108 0
	addl	20(%ecx), %ebx
.LVL62:
.LBE56:
.LBB57:
.LBB52:
	.loc 1 64 0
	cmpl	$-1, %edi
	jge	.L48
.LVL63:
.L51:
.LBB49:
.LBB50:
	.loc 1 65 0
	movl	PyExc_ValueError, %eax
	movl	$.LC9, 4(%esp)
.LVL64:
	movl	%eax, (%esp)
	call	PyErr_SetString
.LVL65:
	xorl	%eax, %eax
	jmp	.L65
.LVL66:
	.p2align 4,,7
	.p2align 3
.L40:
.LBE50:
.LBE49:
.LBE52:
.LBE57:
.LBE59:
.LBE61:
	.loc 1 124 0
	movl	PyExc_TypeError, %eax
	movl	$.LC7, 4(%esp)
.LVL67:
	movl	%eax, (%esp)
	call	PyErr_SetString
.LVL68:
	.loc 1 125 0
	xorl	%eax, %eax
	jmp	.L65
.LBE63:
.LBE65:
	.cfi_endproc
.LFE150:
	.size	buffer_new, .-buffer_new
	.p2align 4,,15
	.type	buffer_length, @function
buffer_length:
.LFB156:
	.loc 1 317 0
	.cfi_startproc
.LVL69:
	pushl	%esi
	.cfi_def_cfa_offset 8
	.cfi_offset 6, -8
	pushl	%ebx
	.cfi_def_cfa_offset 12
	.cfi_offset 3, -12
	subl	$36, %esp
	.cfi_def_cfa_offset 48
	.loc 1 317 0
	movl	48(%esp), %ebx
.LVL70:
.LBB69:
.LBB70:
	.loc 1 21 0
	movl	8(%ebx), %eax
	testl	%eax, %eax
	je	.L81
.LBB71:
	.loc 1 29 0
	movl	4(%eax), %edx
	movl	80(%edx), %esi
.LVL71:
	.loc 1 30 0
	movl	$0, 4(%esp)
	movl	%eax, (%esp)
	call	*8(%esi)
.LVL72:
	cmpl	$1, %eax
	jne	.L82
	.loc 1 36 0
	movl	24(%ebx), %edx
	.loc 1 38 0
	movl	4(%esi), %eax
	.loc 1 36 0
	testl	%edx, %edx
	.loc 1 39 0
	leal	28(%esp), %edx
.LVL73:
	.loc 1 36 0
	cmovne	(%esi), %eax
.LVL74:
	.loc 1 39 0
	movl	%edx, 8(%esp)
	movl	$0, 4(%esp)
	movl	8(%ebx), %edx
.LVL75:
	movl	%edx, (%esp)
	call	*%eax
.LVL76:
	testl	%eax, %eax
	js	.L74
	.loc 1 42 0
	movl	20(%ebx), %ecx
	.loc 1 52 0
	movl	%eax, %esi
.LVL77:
	.loc 1 47 0
	movl	16(%ebx), %edx
	cmpl	%ecx, %eax
	cmovle	%eax, %ecx
.LVL78:
	cmpl	$-1, %edx
	cmove	%eax, %edx
.LVL79:
	.loc 1 52 0
	subl	%ecx, %esi
	.loc 1 51 0
	leal	(%edx,%ecx), %ebx
.LVL80:
	.loc 1 52 0
	cmpl	%ebx, %eax
	cmovl	%esi, %edx
.LVL81:
.L72:
.LBE71:
.LBE70:
.LBE69:
	.loc 1 323 0
	addl	$36, %esp
	.cfi_remember_state
	.cfi_def_cfa_offset 12
	.loc 1 322 0
	movl	%edx, %eax
	.loc 1 323 0
	popl	%ebx
	.cfi_restore 3
	.cfi_def_cfa_offset 8
	popl	%esi
	.cfi_restore 6
	.cfi_def_cfa_offset 4
	ret
.LVL82:
	.p2align 4,,7
	.p2align 3
.L82:
	.cfi_restore_state
.LBB75:
.LBB73:
.LBB72:
	.loc 1 31 0
	movl	PyExc_TypeError, %eax
	movl	$.LC0, 4(%esp)
	movl	%eax, (%esp)
	call	PyErr_SetString
.LVL83:
.L74:
.LBE72:
.LBE73:
.LBE75:
	.loc 1 323 0
	addl	$36, %esp
	.cfi_remember_state
	.cfi_def_cfa_offset 12
	.loc 1 321 0
	movl	$-1, %eax
	.loc 1 323 0
	popl	%ebx
	.cfi_restore 3
	.cfi_def_cfa_offset 8
.LVL84:
	popl	%esi
	.cfi_restore 6
	.cfi_def_cfa_offset 4
.LVL85:
	ret
.LVL86:
	.p2align 4,,7
	.p2align 3
.L81:
	.cfi_restore_state
.LBB76:
.LBB74:
	.loc 1 24 0
	movl	16(%ebx), %edx
.LVL87:
	jmp	.L72
.LBE74:
.LBE76:
	.cfi_endproc
.LFE156:
	.size	buffer_length, .-buffer_length
	.p2align 4,,15
	.type	buffer_getsegcount, @function
buffer_getsegcount:
.LFB165:
	.loc 1 575 0
	.cfi_startproc
.LVL88:
	pushl	%edi
	.cfi_def_cfa_offset 8
	.cfi_offset 7, -8
	pushl	%esi
	.cfi_def_cfa_offset 12
	.cfi_offset 6, -12
	pushl	%ebx
	.cfi_def_cfa_offset 16
	.cfi_offset 3, -16
	subl	$32, %esp
	.cfi_def_cfa_offset 48
	.loc 1 575 0
	movl	48(%esp), %ebx
.LVL89:
	movl	52(%esp), %esi
.LBB80:
.LBB81:
	.loc 1 21 0
	movl	8(%ebx), %eax
	testl	%eax, %eax
	je	.L95
.LBB82:
	.loc 1 29 0
	movl	4(%eax), %edx
	movl	80(%edx), %edi
.LVL90:
	.loc 1 30 0
	movl	$0, 4(%esp)
	movl	%eax, (%esp)
	call	*8(%edi)
.LVL91:
	cmpl	$1, %eax
	jne	.L96
	.loc 1 36 0
	movl	24(%ebx), %edx
	.loc 1 38 0
	movl	4(%edi), %eax
	.loc 1 36 0
	testl	%edx, %edx
	.loc 1 39 0
	leal	28(%esp), %edx
.LVL92:
	.loc 1 36 0
	cmovne	(%edi), %eax
.LVL93:
	.loc 1 39 0
	movl	%edx, 8(%esp)
	movl	$0, 4(%esp)
	movl	8(%ebx), %edx
.LVL94:
	movl	%edx, (%esp)
	call	*%eax
.LVL95:
	testl	%eax, %eax
	js	.L87
	.loc 1 42 0
	movl	20(%ebx), %ecx
	.loc 1 52 0
	movl	%eax, %edi
.LVL96:
	.loc 1 47 0
	movl	16(%ebx), %edx
	cmpl	%ecx, %eax
	cmovle	%eax, %ecx
.LVL97:
	.loc 1 46 0
	addl	%ecx, 28(%esp)
	.loc 1 47 0
	cmpl	$-1, %edx
	cmove	%eax, %edx
.LVL98:
	.loc 1 52 0
	subl	%ecx, %edi
	.loc 1 51 0
	leal	(%edx,%ecx), %ebx
.LVL99:
	.loc 1 52 0
	cmpl	%ebx, %eax
	cmovl	%edi, %edx
.LVL100:
.L85:
.LBE82:
.LBE81:
.LBE80:
	.loc 1 580 0
	testl	%esi, %esi
	.loc 1 582 0
	movl	$1, %eax
	.loc 1 580 0
	je	.L93
	.loc 1 581 0
	movl	%edx, (%esi)
	.loc 1 582 0
	movl	$1, %eax
.L93:
	.loc 1 583 0
	addl	$32, %esp
	.cfi_remember_state
	.cfi_def_cfa_offset 16
	popl	%ebx
	.cfi_restore 3
	.cfi_def_cfa_offset 12
	popl	%esi
	.cfi_restore 6
	.cfi_def_cfa_offset 8
	popl	%edi
	.cfi_restore 7
	.cfi_def_cfa_offset 4
	ret
.LVL101:
	.p2align 4,,7
	.p2align 3
.L96:
	.cfi_restore_state
.LBB86:
.LBB84:
.LBB83:
	.loc 1 31 0
	movl	PyExc_TypeError, %eax
	movl	$.LC0, 4(%esp)
	movl	%eax, (%esp)
	call	PyErr_SetString
.LVL102:
.L87:
.LBE83:
.LBE84:
.LBE86:
	.loc 1 583 0
	addl	$32, %esp
	.cfi_remember_state
	.cfi_def_cfa_offset 16
	.loc 1 579 0
	movl	$-1, %eax
	.loc 1 583 0
	popl	%ebx
	.cfi_restore 3
	.cfi_def_cfa_offset 12
.LVL103:
	popl	%esi
	.cfi_restore 6
	.cfi_def_cfa_offset 8
	popl	%edi
	.cfi_restore 7
	.cfi_def_cfa_offset 4
.LVL104:
	ret
.LVL105:
	.p2align 4,,7
	.p2align 3
.L95:
	.cfi_restore_state
.LBB87:
.LBB85:
	.loc 1 23 0
	movl	12(%ebx), %eax
	.loc 1 24 0
	movl	16(%ebx), %edx
.LVL106:
	.loc 1 23 0
	movl	%eax, 28(%esp)
	jmp	.L85
.LBE85:
.LBE87:
	.cfi_endproc
.LFE165:
	.size	buffer_getsegcount, .-buffer_getsegcount
	.section	.rodata.str1.4
	.align 4
.LC10:
	.string	"accessing non-existent buffer segment"
	.text
	.p2align 4,,15
	.type	buffer_getreadbuf, @function
buffer_getreadbuf:
.LFB163:
	.loc 1 550 0
	.cfi_startproc
.LVL107:
	pushl	%edi
	.cfi_def_cfa_offset 8
	.cfi_offset 7, -8
	pushl	%esi
	.cfi_def_cfa_offset 12
	.cfi_offset 6, -12
	pushl	%ebx
	.cfi_def_cfa_offset 16
	.cfi_offset 3, -16
	subl	$16, %esp
	.cfi_def_cfa_offset 32
	.loc 1 552 0
	movl	36(%esp), %ecx
	.loc 1 550 0
	movl	32(%esp), %ebx
	movl	40(%esp), %esi
	.loc 1 552 0
	testl	%ecx, %ecx
	jne	.L109
.LVL108:
.LBB93:
.LBB94:
	.loc 1 21 0
	movl	8(%ebx), %eax
	testl	%eax, %eax
	je	.L110
.LBB95:
	.loc 1 29 0
	movl	4(%eax), %edx
	movl	80(%edx), %edi
.LVL109:
	.loc 1 30 0
	movl	$0, 4(%esp)
	movl	%eax, (%esp)
	call	*8(%edi)
.LVL110:
	cmpl	$1, %eax
	jne	.L111
	.loc 1 36 0
	movl	24(%ebx), %edx
	.loc 1 38 0
	movl	4(%edi), %eax
	.loc 1 36 0
	testl	%edx, %edx
	cmovne	(%edi), %eax
.LVL111:
	.loc 1 39 0
	movl	%esi, 8(%esp)
	movl	$0, 4(%esp)
	movl	8(%ebx), %edx
	movl	%edx, (%esp)
	call	*%eax
.LVL112:
	testl	%eax, %eax
	js	.L103
	.loc 1 42 0
	movl	20(%ebx), %ecx
	cmpl	%ecx, %eax
	cmovle	%eax, %ecx
.LVL113:
	.loc 1 46 0
	addl	%ecx, (%esi)
	.loc 1 52 0
	movl	%eax, %esi
.LVL114:
	.loc 1 47 0
	movl	16(%ebx), %edx
	cmpl	$-1, %edx
	cmove	%eax, %edx
.LVL115:
	.loc 1 52 0
	subl	%ecx, %esi
	.loc 1 51 0
	leal	(%edx,%ecx), %ebx
.LVL116:
	.loc 1 52 0
	cmpl	%ebx, %eax
	cmovl	%esi, %edx
.LVL117:
.L101:
.LBE95:
.LBE94:
.LBE93:
	.loc 1 559 0
	movl	%edx, %eax
.LVL118:
.L107:
	.loc 1 560 0
	addl	$16, %esp
	.cfi_remember_state
	.cfi_def_cfa_offset 16
	popl	%ebx
	.cfi_restore 3
	.cfi_def_cfa_offset 12
	popl	%esi
	.cfi_restore 6
	.cfi_def_cfa_offset 8
	popl	%edi
	.cfi_restore 7
	.cfi_def_cfa_offset 4
	ret
.LVL119:
	.p2align 4,,7
	.p2align 3
.L111:
	.cfi_restore_state
.LBB99:
.LBB97:
.LBB96:
	.loc 1 31 0
	movl	PyExc_TypeError, %eax
	movl	$.LC0, 4(%esp)
	movl	%eax, (%esp)
	call	PyErr_SetString
.LVL120:
.L103:
.LBE96:
.LBE97:
.LBE99:
	.loc 1 560 0
	addl	$16, %esp
	.cfi_remember_state
	.cfi_def_cfa_offset 16
	.loc 1 558 0
	movl	$-1, %eax
	.loc 1 560 0
	popl	%ebx
	.cfi_restore 3
	.cfi_def_cfa_offset 12
.LVL121:
	popl	%esi
	.cfi_restore 6
	.cfi_def_cfa_offset 8
.LVL122:
	popl	%edi
	.cfi_restore 7
	.cfi_def_cfa_offset 4
.LVL123:
	ret
.LVL124:
	.p2align 4,,7
	.p2align 3
.L110:
	.cfi_restore_state
.LBB100:
.LBB98:
	.loc 1 23 0
	movl	12(%ebx), %eax
	movl	%eax, (%esi)
	.loc 1 24 0
	movl	16(%ebx), %edx
.LVL125:
	jmp	.L101
.LVL126:
	.p2align 4,,7
	.p2align 3
.L109:
.LBE98:
.LBE100:
.LBB101:
.LBB102:
	.loc 1 553 0
	movl	PyExc_SystemError, %eax
	movl	$.LC10, 4(%esp)
	movl	%eax, (%esp)
	call	PyErr_SetString
.LVL127:
	movl	$-1, %eax
	jmp	.L107
.LBE102:
.LBE101:
	.cfi_endproc
.LFE163:
	.size	buffer_getreadbuf, .-buffer_getreadbuf
	.p2align 4,,15
	.type	buffer_getcharbuf, @function
buffer_getcharbuf:
.LFB166:
	.loc 1 587 0
	.cfi_startproc
.LVL128:
	pushl	%edi
	.cfi_def_cfa_offset 8
	.cfi_offset 7, -8
	pushl	%esi
	.cfi_def_cfa_offset 12
	.cfi_offset 6, -12
	pushl	%ebx
	.cfi_def_cfa_offset 16
	.cfi_offset 3, -16
	subl	$32, %esp
	.cfi_def_cfa_offset 48
	.loc 1 590 0
	movl	52(%esp), %ecx
	.loc 1 587 0
	movl	48(%esp), %ebx
	.loc 1 590 0
	testl	%ecx, %ecx
	jne	.L125
.LVL129:
.LBB108:
.LBB109:
	.loc 1 21 0
	movl	8(%ebx), %eax
	testl	%eax, %eax
	je	.L126
.LBB110:
	.loc 1 29 0
	movl	4(%eax), %edx
	movl	80(%edx), %esi
.LVL130:
	.loc 1 30 0
	movl	$0, 4(%esp)
	movl	%eax, (%esp)
	call	*8(%esi)
.LVL131:
	cmpl	$1, %eax
	jne	.L127
	.loc 1 36 0
	movl	24(%ebx), %edx
	.loc 1 38 0
	movl	4(%esi), %eax
	.loc 1 36 0
	testl	%edx, %edx
	.loc 1 39 0
	leal	28(%esp), %edx
.LVL132:
	.loc 1 36 0
	cmovne	(%esi), %eax
.LVL133:
	.loc 1 39 0
	movl	%edx, 8(%esp)
	movl	$0, 4(%esp)
	movl	8(%ebx), %edx
.LVL134:
	movl	%edx, (%esp)
	call	*%eax
.LVL135:
	testl	%eax, %eax
	js	.L118
	.loc 1 42 0
	movl	20(%ebx), %ecx
	.loc 1 52 0
	movl	%eax, %edi
	.loc 1 47 0
	movl	16(%ebx), %edx
	.loc 1 51 0
	movl	28(%esp), %esi
.LVL136:
	cmpl	%ecx, %eax
	cmovle	%eax, %ecx
.LVL137:
	.loc 1 47 0
	cmpl	$-1, %edx
	cmove	%eax, %edx
.LVL138:
	.loc 1 52 0
	subl	%ecx, %edi
	.loc 1 51 0
	leal	(%edx,%ecx), %ebx
.LVL139:
	addl	%ecx, %esi
	.loc 1 52 0
	cmpl	%ebx, %eax
	cmovl	%edi, %edx
.LVL140:
.L116:
.LBE110:
.LBE109:
.LBE108:
	.loc 1 597 0
	movl	56(%esp), %eax
	movl	%esi, (%eax)
	.loc 1 598 0
	movl	%edx, %eax
.LVL141:
.L123:
	.loc 1 599 0
	addl	$32, %esp
	.cfi_remember_state
	.cfi_def_cfa_offset 16
	popl	%ebx
	.cfi_restore 3
	.cfi_def_cfa_offset 12
	popl	%esi
	.cfi_restore 6
	.cfi_def_cfa_offset 8
	popl	%edi
	.cfi_restore 7
	.cfi_def_cfa_offset 4
	ret
.LVL142:
	.p2align 4,,7
	.p2align 3
.L127:
	.cfi_restore_state
.LBB114:
.LBB112:
.LBB111:
	.loc 1 31 0
	movl	PyExc_TypeError, %eax
	movl	$.LC0, 4(%esp)
	movl	%eax, (%esp)
	call	PyErr_SetString
.LVL143:
.L118:
.LBE111:
.LBE112:
.LBE114:
	.loc 1 599 0
	addl	$32, %esp
	.cfi_remember_state
	.cfi_def_cfa_offset 16
	.loc 1 596 0
	movl	$-1, %eax
	.loc 1 599 0
	popl	%ebx
	.cfi_restore 3
	.cfi_def_cfa_offset 12
.LVL144:
	popl	%esi
	.cfi_restore 6
	.cfi_def_cfa_offset 8
.LVL145:
	popl	%edi
	.cfi_restore 7
	.cfi_def_cfa_offset 4
	ret
.LVL146:
	.p2align 4,,7
	.p2align 3
.L126:
	.cfi_restore_state
.LBB115:
.LBB113:
	.loc 1 23 0
	movl	12(%ebx), %esi
	.loc 1 24 0
	movl	16(%ebx), %edx
.LVL147:
	jmp	.L116
.LVL148:
	.p2align 4,,7
	.p2align 3
.L125:
.LBE113:
.LBE115:
.LBB116:
.LBB117:
	.loc 1 591 0
	movl	PyExc_SystemError, %eax
	movl	$.LC10, 4(%esp)
	movl	%eax, (%esp)
	call	PyErr_SetString
.LVL149:
	movl	$-1, %eax
	jmp	.L123
.LBE117:
.LBE116:
	.cfi_endproc
.LFE166:
	.size	buffer_getcharbuf, .-buffer_getcharbuf
	.section	.rodata.str1.1
.LC11:
	.string	"buffer is read-only"
	.text
	.p2align 4,,15
	.type	buffer_getwritebuf, @function
buffer_getwritebuf:
.LFB164:
	.loc 1 564 0
	.cfi_startproc
.LVL150:
	pushl	%edi
	.cfi_def_cfa_offset 8
	.cfi_offset 7, -8
	pushl	%esi
	.cfi_def_cfa_offset 12
	.cfi_offset 6, -12
	pushl	%ebx
	.cfi_def_cfa_offset 16
	.cfi_offset 3, -16
	subl	$16, %esp
	.cfi_def_cfa_offset 32
	.loc 1 564 0
	movl	32(%esp), %ebx
	movl	40(%esp), %esi
	.loc 1 565 0
	movl	24(%ebx), %edi
	testl	%edi, %edi
	jne	.L142
.LVL151:
.LBB127:
.LBB128:
	.loc 1 552 0
	movl	36(%esp), %ecx
	testl	%ecx, %ecx
	jne	.L143
.LVL152:
.LBB129:
.LBB130:
	.loc 1 21 0
	movl	8(%ebx), %eax
	testl	%eax, %eax
	je	.L144
.LBB131:
	.loc 1 29 0
	movl	4(%eax), %edx
	movl	80(%edx), %edi
.LVL153:
	.loc 1 30 0
	movl	$0, 4(%esp)
	movl	%eax, (%esp)
	call	*8(%edi)
.LVL154:
	cmpl	$1, %eax
	jne	.L145
	.loc 1 36 0
	movl	24(%ebx), %edx
	.loc 1 38 0
	movl	4(%edi), %eax
	.loc 1 36 0
	testl	%edx, %edx
	cmovne	(%edi), %eax
.LVL155:
	.loc 1 39 0
	movl	%esi, 8(%esp)
	movl	$0, 4(%esp)
	movl	8(%ebx), %edx
	movl	%edx, (%esp)
	call	*%eax
.LVL156:
	testl	%eax, %eax
	js	.L136
	.loc 1 42 0
	movl	20(%ebx), %ecx
	cmpl	%ecx, %eax
	cmovle	%eax, %ecx
.LVL157:
	.loc 1 46 0
	addl	%ecx, (%esi)
	.loc 1 52 0
	movl	%eax, %esi
.LVL158:
	.loc 1 47 0
	movl	16(%ebx), %edx
	cmpl	$-1, %edx
	cmove	%eax, %edx
.LVL159:
	.loc 1 52 0
	subl	%ecx, %esi
	.loc 1 51 0
	leal	(%ecx,%edx), %ebx
.LVL160:
	.loc 1 52 0
	cmpl	%ebx, %eax
	cmovl	%esi, %edx
.LVL161:
.L134:
.LBE131:
.LBE130:
.LBE129:
	.loc 1 558 0
	movl	%edx, %eax
.LVL162:
.L140:
.LBE128:
.LBE127:
	.loc 1 571 0
	addl	$16, %esp
	.cfi_remember_state
	.cfi_def_cfa_offset 16
	popl	%ebx
	.cfi_restore 3
	.cfi_def_cfa_offset 12
	popl	%esi
	.cfi_restore 6
	.cfi_def_cfa_offset 8
	popl	%edi
	.cfi_restore 7
	.cfi_def_cfa_offset 4
	ret
.LVL163:
	.p2align 4,,7
	.p2align 3
.L145:
	.cfi_restore_state
.LBB143:
.LBB139:
.LBB135:
.LBB133:
.LBB132:
	.loc 1 31 0
	movl	PyExc_TypeError, %eax
	movl	$.LC0, 4(%esp)
	movl	%eax, (%esp)
	call	PyErr_SetString
.LVL164:
.L136:
.LBE132:
.LBE133:
.LBE135:
.LBE139:
.LBE143:
	.loc 1 571 0
	addl	$16, %esp
	.cfi_remember_state
	.cfi_def_cfa_offset 16
.LBB144:
.LBB140:
	.loc 1 558 0
	movl	$-1, %eax
.LBE140:
.LBE144:
	.loc 1 571 0
	popl	%ebx
	.cfi_restore 3
	.cfi_def_cfa_offset 12
.LVL165:
	popl	%esi
	.cfi_restore 6
	.cfi_def_cfa_offset 8
.LVL166:
	popl	%edi
	.cfi_restore 7
	.cfi_def_cfa_offset 4
.LVL167:
	ret
.LVL168:
	.p2align 4,,7
	.p2align 3
.L144:
	.cfi_restore_state
.LBB145:
.LBB141:
.LBB136:
.LBB134:
	.loc 1 23 0
	movl	12(%ebx), %eax
	movl	%eax, (%esi)
	.loc 1 24 0
	movl	16(%ebx), %edx
.LVL169:
	jmp	.L134
.LVL170:
	.p2align 4,,7
	.p2align 3
.L142:
.LBE134:
.LBE136:
.LBE141:
.LBE145:
.LBB146:
.LBB147:
	.loc 1 567 0
	movl	PyExc_TypeError, %eax
	movl	$.LC11, 4(%esp)
	movl	%eax, (%esp)
	call	PyErr_SetString
.LVL171:
	movl	$-1, %eax
	jmp	.L140
.LVL172:
	.p2align 4,,7
	.p2align 3
.L143:
.LBE147:
.LBE146:
.LBB148:
.LBB142:
.LBB137:
.LBB138:
	.loc 1 553 0
	movl	PyExc_SystemError, %eax
	movl	$.LC10, 4(%esp)
	movl	%eax, (%esp)
	call	PyErr_SetString
.LVL173:
	movl	$-1, %eax
	jmp	.L140
.LBE138:
.LBE137:
.LBE142:
.LBE148:
	.cfi_endproc
.LFE164:
	.size	buffer_getwritebuf, .-buffer_getwritebuf
	.p2align 4,,15
	.type	buffer_str, @function
buffer_str:
.LFB155:
	.loc 1 305 0
	.cfi_startproc
.LVL174:
	pushl	%edi
	.cfi_def_cfa_offset 8
	.cfi_offset 7, -8
	pushl	%esi
	.cfi_def_cfa_offset 12
	.cfi_offset 6, -12
	pushl	%ebx
	.cfi_def_cfa_offset 16
	.cfi_offset 3, -16
	subl	$32, %esp
	.cfi_def_cfa_offset 48
	.loc 1 305 0
	movl	48(%esp), %ebx
.LVL175:
.LBB152:
.LBB153:
	.loc 1 21 0
	movl	8(%ebx), %eax
	testl	%eax, %eax
	je	.L158
.LBB154:
	.loc 1 29 0
	movl	4(%eax), %edx
	movl	80(%edx), %esi
.LVL176:
	.loc 1 30 0
	movl	$0, 4(%esp)
	movl	%eax, (%esp)
	call	*8(%esi)
.LVL177:
	cmpl	$1, %eax
	jne	.L159
	.loc 1 36 0
	movl	24(%ebx), %edx
	.loc 1 38 0
	movl	4(%esi), %eax
	.loc 1 36 0
	testl	%edx, %edx
	.loc 1 39 0
	leal	28(%esp), %edx
.LVL178:
	.loc 1 36 0
	cmovne	(%esi), %eax
.LVL179:
	.loc 1 39 0
	movl	%edx, 8(%esp)
	movl	$0, 4(%esp)
	movl	8(%ebx), %edx
.LVL180:
	movl	%edx, (%esp)
	call	*%eax
.LVL181:
	testl	%eax, %eax
	js	.L150
	.loc 1 42 0
	movl	20(%ebx), %ecx
	.loc 1 52 0
	movl	%eax, %edi
	.loc 1 47 0
	movl	16(%ebx), %edx
	.loc 1 46 0
	movl	28(%esp), %esi
.LVL182:
	cmpl	%ecx, %eax
	cmovle	%eax, %ecx
.LVL183:
	addl	%ecx, %esi
	.loc 1 47 0
	cmpl	$-1, %edx
	cmove	%eax, %edx
.LVL184:
	.loc 1 52 0
	subl	%ecx, %edi
	.loc 1 51 0
	leal	(%edx,%ecx), %ebx
.LVL185:
	.loc 1 52 0
	cmpl	%ebx, %eax
	.loc 1 46 0
	movl	%esi, 28(%esp)
	.loc 1 52 0
	cmovl	%edi, %edx
.LVL186:
.L148:
.LBE154:
.LBE153:
.LBE152:
	.loc 1 310 0
	movl	%esi, (%esp)
	movl	%edx, 4(%esp)
	call	PyString_FromStringAndSize
.LVL187:
	.loc 1 311 0
	addl	$32, %esp
	.cfi_remember_state
	.cfi_def_cfa_offset 16
	popl	%ebx
	.cfi_restore 3
	.cfi_def_cfa_offset 12
	popl	%esi
	.cfi_restore 6
	.cfi_def_cfa_offset 8
	popl	%edi
	.cfi_restore 7
	.cfi_def_cfa_offset 4
	ret
.LVL188:
	.p2align 4,,7
	.p2align 3
.L159:
	.cfi_restore_state
.LBB158:
.LBB156:
.LBB155:
	.loc 1 31 0
	movl	PyExc_TypeError, %eax
	movl	$.LC0, 4(%esp)
	movl	%eax, (%esp)
	call	PyErr_SetString
.LVL189:
.L150:
.LBE155:
.LBE156:
.LBE158:
	.loc 1 311 0
	addl	$32, %esp
	.cfi_remember_state
	.cfi_def_cfa_offset 16
	.loc 1 309 0
	xorl	%eax, %eax
	.loc 1 311 0
	popl	%ebx
	.cfi_restore 3
	.cfi_def_cfa_offset 12
.LVL190:
	popl	%esi
	.cfi_restore 6
	.cfi_def_cfa_offset 8
.LVL191:
	popl	%edi
	.cfi_restore 7
	.cfi_def_cfa_offset 4
	ret
.LVL192:
	.p2align 4,,7
	.p2align 3
.L158:
	.cfi_restore_state
.LBB159:
.LBB157:
	.loc 1 23 0
	movl	12(%ebx), %esi
	.loc 1 24 0
	movl	16(%ebx), %edx
.LVL193:
	.loc 1 23 0
	movl	%esi, 28(%esp)
	jmp	.L148
.LBE157:
.LBE159:
	.cfi_endproc
.LFE155:
	.size	buffer_str, .-buffer_str
	.section	.rodata.str1.1
.LC12:
	.string	"buffer index out of range"
	.text
	.p2align 4,,15
	.type	buffer_item, @function
buffer_item:
.LFB159:
	.loc 1 406 0
	.cfi_startproc
.LVL194:
	pushl	%ebp
	.cfi_def_cfa_offset 8
	.cfi_offset 5, -8
	pushl	%edi
	.cfi_def_cfa_offset 12
	.cfi_offset 7, -12
	pushl	%esi
	.cfi_def_cfa_offset 16
	.cfi_offset 6, -16
	pushl	%ebx
	.cfi_def_cfa_offset 20
	.cfi_offset 3, -20
	subl	$44, %esp
	.cfi_def_cfa_offset 64
	.loc 1 406 0
	movl	64(%esp), %ebx
.LVL195:
	movl	68(%esp), %esi
.LBB165:
.LBB166:
	.loc 1 21 0
	movl	8(%ebx), %eax
	testl	%eax, %eax
	je	.L176
.LBB167:
	.loc 1 29 0
	movl	4(%eax), %edx
	movl	80(%edx), %edi
.LVL196:
	.loc 1 30 0
	movl	$0, 4(%esp)
	movl	%eax, (%esp)
	call	*8(%edi)
.LVL197:
	cmpl	$1, %eax
	jne	.L177
	.loc 1 36 0
	movl	24(%ebx), %edx
	.loc 1 38 0
	movl	4(%edi), %eax
	.loc 1 36 0
	testl	%edx, %edx
	.loc 1 39 0
	leal	28(%esp), %edx
.LVL198:
	.loc 1 36 0
	cmovne	(%edi), %eax
.LVL199:
	.loc 1 39 0
	movl	%edx, 8(%esp)
	movl	$0, 4(%esp)
	movl	8(%ebx), %edx
.LVL200:
	movl	%edx, (%esp)
	call	*%eax
.LVL201:
	testl	%eax, %eax
	js	.L164
	.loc 1 42 0
	movl	20(%ebx), %ecx
	.loc 1 52 0
	movl	%eax, %ebp
	.loc 1 47 0
	movl	16(%ebx), %edx
	.loc 1 46 0
	movl	28(%esp), %edi
.LVL202:
	cmpl	%ecx, %eax
	cmovle	%eax, %ecx
.LVL203:
	addl	%ecx, %edi
	.loc 1 47 0
	cmpl	$-1, %edx
	cmove	%eax, %edx
.LVL204:
	.loc 1 52 0
	subl	%ecx, %ebp
	.loc 1 51 0
	leal	(%edx,%ecx), %ebx
.LVL205:
	.loc 1 52 0
	cmpl	%ebx, %eax
	.loc 1 46 0
	movl	%edi, 28(%esp)
	.loc 1 52 0
	cmovl	%ebp, %edx
.LVL206:
.L162:
.LBE167:
.LBE166:
.LBE165:
	.loc 1 411 0
	testl	%esi, %esi
	js	.L169
	.loc 1 411 0 is_stmt 0 discriminator 1
	cmpl	%edx, %esi
	jge	.L169
	.loc 1 415 0 is_stmt 1
	addl	%edi, %esi
	movl	%esi, (%esp)
	movl	$1, 4(%esp)
	call	PyString_FromStringAndSize
.LVL207:
	.loc 1 416 0
	addl	$44, %esp
	.cfi_remember_state
	.cfi_def_cfa_offset 20
	popl	%ebx
	.cfi_restore 3
	.cfi_def_cfa_offset 16
	popl	%esi
	.cfi_restore 6
	.cfi_def_cfa_offset 12
	popl	%edi
	.cfi_restore 7
	.cfi_def_cfa_offset 8
	popl	%ebp
	.cfi_restore 5
	.cfi_def_cfa_offset 4
	ret
.LVL208:
	.p2align 4,,7
	.p2align 3
.L177:
	.cfi_restore_state
.LBB171:
.LBB169:
.LBB168:
	.loc 1 31 0
	movl	PyExc_TypeError, %eax
	movl	$.LC0, 4(%esp)
	movl	%eax, (%esp)
	call	PyErr_SetString
.LVL209:
.L164:
.LBE168:
.LBE169:
.LBE171:
	.loc 1 416 0
	addl	$44, %esp
	.cfi_remember_state
	.cfi_def_cfa_offset 20
	.loc 1 410 0
	xorl	%eax, %eax
	.loc 1 416 0
	popl	%ebx
	.cfi_restore 3
	.cfi_def_cfa_offset 16
.LVL210:
	popl	%esi
	.cfi_restore 6
	.cfi_def_cfa_offset 12
	popl	%edi
	.cfi_restore 7
	.cfi_def_cfa_offset 8
.LVL211:
	popl	%ebp
	.cfi_restore 5
	.cfi_def_cfa_offset 4
	ret
.LVL212:
	.p2align 4,,7
	.p2align 3
.L176:
	.cfi_restore_state
.LBB172:
.LBB170:
	.loc 1 23 0
	movl	12(%ebx), %edi
	.loc 1 24 0
	movl	16(%ebx), %edx
.LVL213:
	.loc 1 23 0
	movl	%edi, 28(%esp)
	jmp	.L162
.LVL214:
	.p2align 4,,7
	.p2align 3
.L169:
.LBE170:
.LBE172:
.LBB173:
.LBB174:
	.loc 1 412 0
	movl	PyExc_IndexError, %eax
	movl	$.LC12, 4(%esp)
	movl	%eax, (%esp)
	call	PyErr_SetString
.LVL215:
.LBE174:
.LBE173:
	.loc 1 416 0
	addl	$44, %esp
	.cfi_def_cfa_offset 20
.LBB176:
.LBB175:
	.loc 1 412 0
	xorl	%eax, %eax
.LBE175:
.LBE176:
	.loc 1 416 0
	popl	%ebx
	.cfi_restore 3
	.cfi_def_cfa_offset 16
	popl	%esi
	.cfi_restore 6
	.cfi_def_cfa_offset 12
.LVL216:
	popl	%edi
	.cfi_restore 7
	.cfi_def_cfa_offset 8
	popl	%ebp
	.cfi_restore 5
	.cfi_def_cfa_offset 4
	ret
	.cfi_endproc
.LFE159:
	.size	buffer_item, .-buffer_item
	.p2align 4,,15
	.type	buffer_slice, @function
buffer_slice:
.LFB160:
	.loc 1 420 0
	.cfi_startproc
.LVL217:
	pushl	%ebp
	.cfi_def_cfa_offset 8
	.cfi_offset 5, -8
	pushl	%edi
	.cfi_def_cfa_offset 12
	.cfi_offset 7, -12
	pushl	%esi
	.cfi_def_cfa_offset 16
	.cfi_offset 6, -16
	pushl	%ebx
	.cfi_def_cfa_offset 20
	.cfi_offset 3, -20
	subl	$44, %esp
	.cfi_def_cfa_offset 64
	.loc 1 420 0
	movl	64(%esp), %ebx
.LVL218:
	movl	68(%esp), %esi
	movl	72(%esp), %ebp
.LBB180:
.LBB181:
	.loc 1 21 0
	movl	8(%ebx), %eax
	testl	%eax, %eax
	je	.L190
.LBB182:
	.loc 1 29 0
	movl	4(%eax), %edx
	movl	80(%edx), %edi
.LVL219:
	.loc 1 30 0
	movl	$0, 4(%esp)
	movl	%eax, (%esp)
	call	*8(%edi)
.LVL220:
	cmpl	$1, %eax
	jne	.L191
	.loc 1 36 0
	movl	24(%ebx), %edx
	.loc 1 38 0
	movl	4(%edi), %eax
	.loc 1 36 0
	testl	%edx, %edx
	.loc 1 39 0
	leal	28(%esp), %edx
.LVL221:
	.loc 1 36 0
	cmovne	(%edi), %eax
.LVL222:
	.loc 1 39 0
	movl	%edx, 8(%esp)
	movl	$0, 4(%esp)
	movl	8(%ebx), %edx
.LVL223:
	movl	%edx, (%esp)
	call	*%eax
.LVL224:
	testl	%eax, %eax
	js	.L182
	.loc 1 42 0
	movl	20(%ebx), %ecx
	.loc 1 47 0
	movl	16(%ebx), %edx
	.loc 1 46 0
	movl	28(%esp), %edi
.LVL225:
	cmpl	%ecx, %eax
	cmovle	%eax, %ecx
.LVL226:
	addl	%ecx, %edi
	.loc 1 47 0
	cmpl	$-1, %edx
	cmove	%eax, %edx
.LVL227:
	.loc 1 51 0
	leal	(%edx,%ecx), %ebx
.LVL228:
	movl	%ebx, 12(%esp)
	.loc 1 52 0
	movl	%eax, %ebx
	subl	%ecx, %ebx
	cmpl	12(%esp), %eax
	.loc 1 46 0
	movl	%edi, 28(%esp)
	.loc 1 52 0
	cmovl	%ebx, %edx
.LVL229:
.L180:
	xorl	%eax, %eax
	testl	%esi, %esi
	cmovs	%eax, %esi
.LVL230:
	testl	%ebp, %ebp
	cmovs	%eax, %ebp
.LVL231:
	cmpl	%ebp, %edx
	cmovg	%ebp, %edx
.LVL232:
	cmpl	%esi, %edx
	cmovl	%esi, %edx
.LVL233:
.LBE182:
.LBE181:
.LBE180:
	.loc 1 433 0
	subl	%esi, %edx
	addl	%edi, %esi
.LVL234:
	movl	%esi, (%esp)
	movl	%edx, 4(%esp)
	call	PyString_FromStringAndSize
.LVL235:
	.loc 1 435 0
	addl	$44, %esp
	.cfi_remember_state
	.cfi_def_cfa_offset 20
	popl	%ebx
	.cfi_restore 3
	.cfi_def_cfa_offset 16
	popl	%esi
	.cfi_restore 6
	.cfi_def_cfa_offset 12
	popl	%edi
	.cfi_restore 7
	.cfi_def_cfa_offset 8
	popl	%ebp
	.cfi_restore 5
	.cfi_def_cfa_offset 4
	ret
.LVL236:
	.p2align 4,,7
	.p2align 3
.L191:
	.cfi_restore_state
.LBB186:
.LBB184:
.LBB183:
	.loc 1 31 0
	movl	PyExc_TypeError, %eax
	movl	$.LC0, 4(%esp)
	movl	%eax, (%esp)
	call	PyErr_SetString
.LVL237:
.L182:
.LBE183:
.LBE184:
.LBE186:
	.loc 1 435 0
	addl	$44, %esp
	.cfi_remember_state
	.cfi_def_cfa_offset 20
	.loc 1 424 0
	xorl	%eax, %eax
	.loc 1 435 0
	popl	%ebx
	.cfi_restore 3
	.cfi_def_cfa_offset 16
.LVL238:
	popl	%esi
	.cfi_restore 6
	.cfi_def_cfa_offset 12
	popl	%edi
	.cfi_restore 7
	.cfi_def_cfa_offset 8
.LVL239:
	popl	%ebp
	.cfi_restore 5
	.cfi_def_cfa_offset 4
	ret
.LVL240:
	.p2align 4,,7
	.p2align 3
.L190:
	.cfi_restore_state
.LBB187:
.LBB185:
	.loc 1 23 0
	movl	12(%ebx), %edi
	.loc 1 24 0
	movl	16(%ebx), %edx
.LVL241:
	.loc 1 23 0
	movl	%edi, 28(%esp)
	jmp	.L180
.LBE185:
.LBE187:
	.cfi_endproc
.LFE160:
	.size	buffer_slice, .-buffer_slice
	.p2align 4,,15
	.type	buffer_compare, @function
buffer_compare:
.LFB152:
	.loc 1 225 0
	.cfi_startproc
.LVL242:
	pushl	%ebp
	.cfi_def_cfa_offset 8
	.cfi_offset 5, -8
	pushl	%edi
	.cfi_def_cfa_offset 12
	.cfi_offset 7, -12
	pushl	%esi
	.cfi_def_cfa_offset 16
	.cfi_offset 6, -16
	pushl	%ebx
	.cfi_def_cfa_offset 20
	.cfi_offset 3, -20
	subl	$44, %esp
	.cfi_def_cfa_offset 64
	.loc 1 225 0
	movl	64(%esp), %ebx
.LVL243:
	movl	68(%esp), %esi
.LBB194:
.LBB195:
	.loc 1 21 0
	movl	8(%ebx), %eax
	testl	%eax, %eax
	je	.L221
.LBB196:
	.loc 1 29 0
	movl	4(%eax), %edx
	movl	80(%edx), %edi
.LVL244:
	.loc 1 30 0
	movl	$0, 4(%esp)
	movl	%eax, (%esp)
	call	*8(%edi)
.LVL245:
	cmpl	$1, %eax
	jne	.L220
	.loc 1 36 0
	movl	24(%ebx), %ecx
	.loc 1 39 0
	leal	24(%esp), %edx
.LVL246:
	.loc 1 38 0
	movl	4(%edi), %eax
	.loc 1 36 0
	testl	%ecx, %ecx
	cmovne	(%edi), %eax
.LVL247:
	.loc 1 39 0
	movl	%edx, 8(%esp)
	movl	$0, 4(%esp)
	movl	8(%ebx), %edx
.LVL248:
	movl	%edx, (%esp)
	call	*%eax
.LVL249:
	testl	%eax, %eax
	js	.L196
	.loc 1 42 0
	movl	20(%ebx), %edx
	.loc 1 52 0
	movl	%eax, %edi
.LVL250:
	.loc 1 47 0
	movl	16(%ebx), %ebx
.LVL251:
	cmpl	%edx, %eax
	cmovle	%eax, %edx
.LVL252:
	.loc 1 46 0
	addl	%edx, 24(%esp)
	.loc 1 47 0
	cmpl	$-1, %ebx
	cmove	%eax, %ebx
.LVL253:
	.loc 1 52 0
	subl	%edx, %edi
	.loc 1 51 0
	leal	(%ebx,%edx), %ecx
	.loc 1 52 0
	cmpl	%ecx, %eax
.LBE196:
.LBE195:
.LBE194:
.LBB200:
.LBB201:
	.loc 1 21 0
	movl	8(%esi), %eax
.LVL254:
.LBE201:
.LBE200:
.LBB207:
.LBB198:
.LBB197:
	.loc 1 52 0
	cmovl	%edi, %ebx
.LVL255:
.LBE197:
.LBE198:
.LBE207:
.LBB208:
.LBB204:
	.loc 1 21 0
	testl	%eax, %eax
	je	.L222
.LVL256:
.L218:
.LBB202:
	.loc 1 29 0
	movl	4(%eax), %edx
	movl	80(%edx), %edi
.LVL257:
	.loc 1 30 0
	movl	$0, 4(%esp)
	movl	%eax, (%esp)
	call	*8(%edi)
.LVL258:
	cmpl	$1, %eax
	jne	.L220
	.loc 1 36 0
	movl	24(%esi), %edx
	.loc 1 38 0
	movl	4(%edi), %eax
	.loc 1 36 0
	testl	%edx, %edx
	.loc 1 39 0
	leal	28(%esp), %edx
.LVL259:
	.loc 1 36 0
	cmovne	(%edi), %eax
.LVL260:
	.loc 1 39 0
	movl	%edx, 8(%esp)
	movl	$0, 4(%esp)
	movl	8(%esi), %edx
.LVL261:
	movl	%edx, (%esp)
	call	*%eax
.LVL262:
	testl	%eax, %eax
	js	.L196
	.loc 1 42 0
	movl	20(%esi), %edx
	.loc 1 52 0
	movl	%eax, %ebp
	.loc 1 46 0
	movl	28(%esp), %ecx
	.loc 1 47 0
	movl	16(%esi), %esi
.LVL263:
	cmpl	%edx, %eax
	cmovle	%eax, %edx
.LVL264:
	.loc 1 46 0
	addl	%edx, %ecx
	.loc 1 47 0
	cmpl	$-1, %esi
	cmove	%eax, %esi
.LVL265:
	.loc 1 52 0
	subl	%edx, %ebp
	.loc 1 51 0
	leal	(%esi,%edx), %edi
.LVL266:
	.loc 1 52 0
	cmpl	%edi, %eax
	.loc 1 46 0
	movl	%ecx, 28(%esp)
	.loc 1 52 0
	cmovl	%ebp, %esi
.LVL267:
.L200:
.LBE202:
.LBE204:
.LBE208:
	.loc 1 233 0
	cmpl	%ebx, %esi
	movl	%ebx, %eax
	cmovle	%esi, %eax
.LVL268:
	.loc 1 234 0
	testl	%eax, %eax
	jle	.L204
	.loc 1 235 0
	movl	%eax, 8(%esp)
	movl	24(%esp), %eax
.LVL269:
	movl	%ecx, 4(%esp)
	movl	%eax, (%esp)
	call	memcmp
.LVL270:
	.loc 1 236 0
	testl	%eax, %eax
	je	.L204
	.loc 1 240 0
	addl	$44, %esp
	.cfi_remember_state
	.cfi_def_cfa_offset 20
	.loc 1 237 0
	sarl	$31, %eax
.LVL271:
	.loc 1 240 0
	popl	%ebx
	.cfi_restore 3
	.cfi_def_cfa_offset 16
.LVL272:
	.loc 1 237 0
	orl	$1, %eax
	.loc 1 240 0
	popl	%esi
	.cfi_restore 6
	.cfi_def_cfa_offset 12
.LVL273:
	popl	%edi
	.cfi_restore 7
	.cfi_def_cfa_offset 8
	popl	%ebp
	.cfi_restore 5
	.cfi_def_cfa_offset 4
	ret
.LVL274:
	.p2align 4,,7
	.p2align 3
.L220:
	.cfi_restore_state
.LBB209:
.LBB205:
.LBB203:
	.loc 1 31 0
	movl	PyExc_TypeError, %eax
	movl	$.LC0, 4(%esp)
	movl	%eax, (%esp)
	call	PyErr_SetString
.LVL275:
.L196:
.LBE203:
.LBE205:
.LBE209:
	.loc 1 230 0
	movl	$-1, %eax
.L216:
	.loc 1 240 0
	addl	$44, %esp
	.cfi_remember_state
	.cfi_def_cfa_offset 20
	popl	%ebx
	.cfi_restore 3
	.cfi_def_cfa_offset 16
	popl	%esi
	.cfi_restore 6
	.cfi_def_cfa_offset 12
	popl	%edi
	.cfi_restore 7
	.cfi_def_cfa_offset 8
	popl	%ebp
	.cfi_restore 5
	.cfi_def_cfa_offset 4
	ret
.LVL276:
	.p2align 4,,7
	.p2align 3
.L204:
	.cfi_restore_state
	.loc 1 239 0
	cmpl	%ebx, %esi
	.loc 1 237 0
	movl	$-1, %eax
	.loc 1 239 0
	jg	.L216
	.loc 1 239 0 is_stmt 0 discriminator 1
	xorl	%eax, %eax
	cmpl	%esi, %ebx
	setg	%al
	.loc 1 240 0 is_stmt 1 discriminator 1
	addl	$44, %esp
	.cfi_remember_state
	.cfi_def_cfa_offset 20
	popl	%ebx
	.cfi_restore 3
	.cfi_def_cfa_offset 16
.LVL277:
	popl	%esi
	.cfi_restore 6
	.cfi_def_cfa_offset 12
.LVL278:
	popl	%edi
	.cfi_restore 7
	.cfi_def_cfa_offset 8
	popl	%ebp
	.cfi_restore 5
	.cfi_def_cfa_offset 4
	ret
.LVL279:
	.p2align 4,,7
	.p2align 3
.L221:
	.cfi_restore_state
.LBB210:
.LBB199:
	.loc 1 23 0
	movl	12(%ebx), %eax
	.loc 1 24 0
	movl	16(%ebx), %ebx
.LVL280:
	.loc 1 23 0
	movl	%eax, 24(%esp)
.LBE199:
.LBE210:
.LBB211:
.LBB206:
	.loc 1 21 0
	movl	8(%esi), %eax
	testl	%eax, %eax
	jne	.L218
.L222:
	.loc 1 23 0
	movl	12(%esi), %ecx
	.loc 1 24 0
	movl	16(%esi), %esi
.LVL281:
	.loc 1 23 0
	movl	%ecx, 28(%esp)
	jmp	.L200
.LBE206:
.LBE211:
	.cfi_endproc
.LFE152:
	.size	buffer_compare, .-buffer_compare
	.section	.rodata.str1.4
	.align 4
.LC13:
	.string	"buffer assignment index out of range"
	.align 4
.LC14:
	.string	"right operand must be a single byte"
	.text
	.p2align 4,,15
	.type	buffer_ass_item, @function
buffer_ass_item:
.LFB161:
	.loc 1 439 0
	.cfi_startproc
.LVL282:
	pushl	%ebp
	.cfi_def_cfa_offset 8
	.cfi_offset 5, -8
	pushl	%edi
	.cfi_def_cfa_offset 12
	.cfi_offset 7, -12
	pushl	%esi
	.cfi_def_cfa_offset 16
	.cfi_offset 6, -16
	pushl	%ebx
	.cfi_def_cfa_offset 20
	.cfi_offset 3, -20
	subl	$44, %esp
	.cfi_def_cfa_offset 64
	.loc 1 439 0
	movl	64(%esp), %ebx
	movl	72(%esp), %edi
	.loc 1 445 0
	movl	24(%ebx), %esi
	testl	%esi, %esi
	jne	.L250
.LVL283:
.LBB215:
.LBB216:
	.loc 1 21 0
	movl	8(%ebx), %eax
	testl	%eax, %eax
	je	.L251
.LBB217:
	.loc 1 29 0
	movl	4(%eax), %edx
	movl	80(%edx), %ebp
.LVL284:
	.loc 1 30 0
	movl	$0, 4(%esp)
	movl	%eax, (%esp)
	call	*8(%ebp)
.LVL285:
	cmpl	$1, %eax
	jne	.L252
	.loc 1 36 0
	movl	24(%ebx), %ecx
	.loc 1 39 0
	leal	24(%esp), %edx
.LVL286:
	.loc 1 38 0
	movl	4(%ebp), %eax
	.loc 1 36 0
	testl	%ecx, %ecx
	cmovne	0(%ebp), %eax
.LVL287:
	.loc 1 39 0
	movl	%edx, 8(%esp)
	movl	$0, 4(%esp)
	movl	8(%ebx), %edx
.LVL288:
	movl	%edx, (%esp)
	call	*%eax
.LVL289:
	testl	%eax, %eax
	js	.L229
	.loc 1 42 0
	movl	20(%ebx), %ecx
	.loc 1 52 0
	movl	%eax, %ebp
.LVL290:
	.loc 1 47 0
	movl	16(%ebx), %edx
	cmpl	%ecx, %eax
	cmovle	%eax, %ecx
.LVL291:
	.loc 1 46 0
	addl	%ecx, 24(%esp)
	.loc 1 47 0
	cmpl	$-1, %edx
	cmove	%eax, %edx
.LVL292:
	.loc 1 52 0
	subl	%ecx, %ebp
	.loc 1 51 0
	leal	(%ecx,%edx), %ebx
.LVL293:
	.loc 1 52 0
	cmpl	%ebx, %eax
	cmovl	%ebp, %edx
.LVL294:
.L227:
.LBE217:
.LBE216:
.LBE215:
	.loc 1 454 0
	movl	68(%esp), %eax
	testl	%eax, %eax
	js	.L237
	.loc 1 454 0 is_stmt 0 discriminator 1
	cmpl	%edx, 68(%esp)
	jge	.L237
	.loc 1 460 0 is_stmt 1
	testl	%edi, %edi
	je	.L233
	.loc 1 460 0 is_stmt 0 discriminator 1
	movl	4(%edi), %eax
	movl	80(%eax), %ebx
.LVL295:
	.loc 1 461 0 is_stmt 1 discriminator 1
	testl	%ebx, %ebx
	je	.L233
	movl	(%ebx), %edx
.LVL296:
	testl	%edx, %edx
	je	.L233
	.loc 1 463 0
	movl	8(%ebx), %eax
	.loc 1 462 0
	testl	%eax, %eax
	je	.L233
	.loc 1 468 0
	movl	$0, 4(%esp)
	movl	%edi, (%esp)
	call	*%eax
.LVL297:
	cmpl	$1, %eax
	jne	.L253
	.loc 1 476 0
	leal	28(%esp), %eax
	movl	%eax, 8(%esp)
	movl	$0, 4(%esp)
	movl	%edi, (%esp)
	call	*(%ebx)
.LVL298:
	testl	%eax, %eax
	js	.L229
	.loc 1 478 0
	cmpl	$1, %eax
	jne	.L254
	.loc 1 484 0
	movl	28(%esp), %eax
.LVL299:
	movl	68(%esp), %ecx
	movzbl	(%eax), %edx
	movl	24(%esp), %eax
	movb	%dl, (%eax,%ecx)
.LVL300:
.L247:
	.loc 1 486 0
	addl	$44, %esp
	.cfi_remember_state
	.cfi_def_cfa_offset 20
	movl	%esi, %eax
	popl	%ebx
	.cfi_restore 3
	.cfi_def_cfa_offset 16
	popl	%esi
	.cfi_restore 6
	.cfi_def_cfa_offset 12
	popl	%edi
	.cfi_restore 7
	.cfi_def_cfa_offset 8
	popl	%ebp
	.cfi_restore 5
	.cfi_def_cfa_offset 4
	ret
.LVL301:
	.p2align 4,,7
	.p2align 3
.L252:
	.cfi_restore_state
.LBB221:
.LBB219:
.LBB218:
	.loc 1 31 0
	movl	PyExc_TypeError, %eax
	movl	$.LC0, 4(%esp)
	movl	%eax, (%esp)
	call	PyErr_SetString
.LVL302:
.L229:
.LBE218:
.LBE219:
.LBE221:
	.loc 1 486 0
	addl	$44, %esp
	.cfi_remember_state
	.cfi_def_cfa_offset 20
	.loc 1 452 0
	movl	$-1, %esi
	.loc 1 486 0
	popl	%ebx
	.cfi_restore 3
	.cfi_def_cfa_offset 16
	movl	%esi, %eax
	popl	%esi
	.cfi_restore 6
	.cfi_def_cfa_offset 12
	popl	%edi
	.cfi_restore 7
	.cfi_def_cfa_offset 8
	popl	%ebp
	.cfi_restore 5
	.cfi_def_cfa_offset 4
	ret
.LVL303:
	.p2align 4,,7
	.p2align 3
.L251:
	.cfi_restore_state
.LBB222:
.LBB220:
	.loc 1 23 0
	movl	12(%ebx), %eax
	.loc 1 24 0
	movl	16(%ebx), %edx
.LVL304:
	.loc 1 23 0
	movl	%eax, 24(%esp)
	jmp	.L227
.LVL305:
	.p2align 4,,7
	.p2align 3
.L253:
.LBE220:
.LBE222:
	.loc 1 471 0
	movl	PyExc_TypeError, %eax
	.loc 1 473 0
	movl	$-1, %esi
	.loc 1 471 0
	movl	$.LC0, 4(%esp)
	movl	%eax, (%esp)
	call	PyErr_SetString
.LVL306:
	.loc 1 473 0
	jmp	.L247
.LVL307:
	.p2align 4,,7
	.p2align 3
.L237:
	.loc 1 455 0
	movl	PyExc_IndexError, %eax
	.loc 1 457 0
	movl	$-1, %esi
	.loc 1 455 0
	movl	$.LC13, 4(%esp)
	movl	%eax, (%esp)
	call	PyErr_SetString
.LVL308:
	.loc 1 457 0
	jmp	.L247
.LVL309:
	.p2align 4,,7
	.p2align 3
.L250:
	.loc 1 446 0
	movl	PyExc_TypeError, %eax
	.loc 1 448 0
	movl	$-1, %esi
	.loc 1 446 0
	movl	$.LC11, 4(%esp)
	movl	%eax, (%esp)
	call	PyErr_SetString
.LVL310:
	.loc 1 448 0
	jmp	.L247
.LVL311:
	.p2align 4,,7
	.p2align 3
.L254:
	.loc 1 479 0
	movl	PyExc_TypeError, %eax
.LVL312:
	.loc 1 481 0
	movl	$-1, %esi
	.loc 1 479 0
	movl	$.LC14, 4(%esp)
	movl	%eax, (%esp)
	call	PyErr_SetString
.LVL313:
	.loc 1 481 0
	jmp	.L247
.LVL314:
	.p2align 4,,7
	.p2align 3
.L233:
	.loc 1 465 0
	call	PyErr_BadArgument
.LVL315:
	.loc 1 466 0
	movl	$-1, %esi
	.p2align 4,,3
	jmp	.L247
	.cfi_endproc
.LFE161:
	.size	buffer_ass_item, .-buffer_ass_item
	.p2align 4,,15
	.type	buffer_concat, @function
buffer_concat:
.LFB157:
	.loc 1 327 0
	.cfi_startproc
.LVL316:
	pushl	%ebp
	.cfi_def_cfa_offset 8
	.cfi_offset 5, -8
	pushl	%edi
	.cfi_def_cfa_offset 12
	.cfi_offset 7, -12
	pushl	%esi
	.cfi_def_cfa_offset 16
	.cfi_offset 6, -16
	pushl	%ebx
	.cfi_def_cfa_offset 20
	.cfi_offset 3, -20
	subl	$44, %esp
	.cfi_def_cfa_offset 64
	.loc 1 327 0
	movl	68(%esp), %ebx
	movl	64(%esp), %edi
	.loc 1 328 0
	movl	4(%ebx), %eax
	movl	80(%eax), %esi
.LVL317:
	.loc 1 334 0
	testl	%esi, %esi
	je	.L256
	.loc 1 334 0 is_stmt 0 discriminator 1
	movl	(%esi), %ecx
	testl	%ecx, %ecx
	je	.L256
	.loc 1 336 0 is_stmt 1
	movl	8(%esi), %eax
	.loc 1 335 0
	testl	%eax, %eax
	je	.L256
	.loc 1 341 0
	movl	$0, 4(%esp)
	movl	%ebx, (%esp)
	call	*%eax
.LVL318:
	cmpl	$1, %eax
	jne	.L276
.LVL319:
.LBB230:
.LBB231:
	.loc 1 21 0
	movl	8(%edi), %eax
	testl	%eax, %eax
	je	.L277
.LBB232:
	.loc 1 29 0
	movl	4(%eax), %edx
	movl	80(%edx), %ebp
.LVL320:
	.loc 1 30 0
	movl	$0, 4(%esp)
	movl	%eax, (%esp)
	call	*8(%ebp)
.LVL321:
	cmpl	$1, %eax
	jne	.L278
	.loc 1 36 0
	movl	24(%edi), %edx
	.loc 1 38 0
	movl	4(%ebp), %eax
	.loc 1 36 0
	testl	%edx, %edx
	.loc 1 39 0
	leal	24(%esp), %edx
.LVL322:
	.loc 1 36 0
	cmovne	0(%ebp), %eax
.LVL323:
	.loc 1 39 0
	movl	%edx, 8(%esp)
	movl	$0, 4(%esp)
	movl	8(%edi), %edx
.LVL324:
	movl	%edx, (%esp)
	call	*%eax
.LVL325:
	testl	%eax, %eax
	js	.L263
	.loc 1 42 0
	movl	20(%edi), %edx
	.loc 1 52 0
	movl	%eax, %ebp
.LVL326:
	.loc 1 47 0
	movl	16(%edi), %edi
.LVL327:
	cmpl	%edx, %eax
	cmovle	%eax, %edx
.LVL328:
	.loc 1 46 0
	addl	%edx, 24(%esp)
	.loc 1 47 0
	cmpl	$-1, %edi
	cmove	%eax, %edi
.LVL329:
	.loc 1 52 0
	subl	%edx, %ebp
	.loc 1 51 0
	leal	(%edi,%edx), %ecx
	.loc 1 52 0
	cmpl	%ecx, %eax
	cmovl	%ebp, %edi
.LVL330:
.L261:
.LBE232:
.LBE231:
.LBE230:
	.loc 1 353 0
	testl	%edi, %edi
	jne	.L279
	.loc 1 355 0
	addl	$1, (%ebx)
	.loc 1 356 0
	movl	%ebx, %eax
.LVL331:
.L273:
	.loc 1 373 0
	addl	$44, %esp
	.cfi_remember_state
	.cfi_def_cfa_offset 20
	popl	%ebx
	.cfi_restore 3
	.cfi_def_cfa_offset 16
	popl	%esi
	.cfi_restore 6
	.cfi_def_cfa_offset 12
.LVL332:
	popl	%edi
	.cfi_restore 7
	.cfi_def_cfa_offset 8
	popl	%ebp
	.cfi_restore 5
	.cfi_def_cfa_offset 4
	ret
.LVL333:
	.p2align 4,,7
	.p2align 3
.L278:
	.cfi_restore_state
.LBB236:
.LBB234:
.LBB233:
	.loc 1 31 0
	movl	PyExc_TypeError, %eax
	movl	$.LC0, 4(%esp)
	movl	%eax, (%esp)
	call	PyErr_SetString
.LVL334:
.L263:
.LBE233:
.LBE234:
.LBE236:
	.loc 1 373 0
	addl	$44, %esp
	.cfi_remember_state
	.cfi_def_cfa_offset 20
	.loc 1 350 0
	xorl	%eax, %eax
	.loc 1 373 0
	popl	%ebx
	.cfi_restore 3
	.cfi_def_cfa_offset 16
	popl	%esi
	.cfi_restore 6
	.cfi_def_cfa_offset 12
	popl	%edi
	.cfi_restore 7
	.cfi_def_cfa_offset 8
	popl	%ebp
	.cfi_restore 5
	.cfi_def_cfa_offset 4
	ret
.LVL335:
	.p2align 4,,7
	.p2align 3
.L279:
	.cfi_restore_state
	.loc 1 359 0
	leal	28(%esp), %eax
	movl	%eax, 8(%esp)
	movl	$0, 4(%esp)
	movl	%ebx, (%esp)
	call	*(%esi)
.LVL336:
	testl	%eax, %eax
	movl	%eax, %esi
.LVL337:
	js	.L263
	.loc 1 364 0
	leal	(%eax,%edi), %ebp
	movl	%ebp, 4(%esp)
	movl	$0, (%esp)
	call	PyString_FromStringAndSize
.LVL338:
.LBB237:
.LBB238:
	.loc 2 51 0
	movl	%edi, 8(%esp)
.LBE238:
.LBE237:
	.loc 1 365 0
	leal	20(%eax), %edx
	.loc 1 364 0
	movl	%eax, %ebx
.LVL339:
.LBB240:
.LBB239:
	.loc 2 51 0
	movl	24(%esp), %eax
.LVL340:
	movl	%edx, (%esp)
	movl	%edx, 12(%esp)
	movl	%eax, 4(%esp)
	call	memcpy
.LVL341:
.LBE239:
.LBE240:
	.loc 1 367 0
	movl	12(%esp), %edx
.LBB241:
.LBB242:
	.loc 2 51 0
	movl	28(%esp), %eax
	movl	%esi, 8(%esp)
.LBE242:
.LBE241:
	.loc 1 367 0
	addl	%edx, %edi
.LVL342:
.LBB244:
.LBB243:
	.loc 2 51 0
	movl	%edi, (%esp)
	movl	%eax, 4(%esp)
	call	memcpy
.LVL343:
.LBE243:
.LBE244:
	.loc 1 372 0
	movl	%ebx, %eax
	.loc 1 370 0
	movb	$0, 20(%ebx,%ebp)
	.loc 1 373 0
	addl	$44, %esp
	.cfi_remember_state
	.cfi_def_cfa_offset 20
	popl	%ebx
	.cfi_restore 3
	.cfi_def_cfa_offset 16
.LVL344:
	popl	%esi
	.cfi_restore 6
	.cfi_def_cfa_offset 12
.LVL345:
	popl	%edi
	.cfi_restore 7
	.cfi_def_cfa_offset 8
.LVL346:
	popl	%ebp
	.cfi_restore 5
	.cfi_def_cfa_offset 4
	ret
.LVL347:
	.p2align 4,,7
	.p2align 3
.L276:
	.cfi_restore_state
	.loc 1 344 0
	movl	PyExc_TypeError, %eax
	movl	$.LC0, 4(%esp)
	movl	%eax, (%esp)
	call	PyErr_SetString
.LVL348:
	.loc 1 373 0
	addl	$44, %esp
	.cfi_remember_state
	.cfi_def_cfa_offset 20
	.loc 1 346 0
	xorl	%eax, %eax
	.loc 1 373 0
	popl	%ebx
	.cfi_restore 3
	.cfi_def_cfa_offset 16
	popl	%esi
	.cfi_restore 6
	.cfi_def_cfa_offset 12
.LVL349:
	popl	%edi
	.cfi_restore 7
	.cfi_def_cfa_offset 8
	popl	%ebp
	.cfi_restore 5
	.cfi_def_cfa_offset 4
	ret
.LVL350:
	.p2align 4,,7
	.p2align 3
.L277:
	.cfi_restore_state
.LBB245:
.LBB235:
	.loc 1 23 0
	movl	12(%edi), %eax
	.loc 1 24 0
	movl	16(%edi), %edi
.LVL351:
	.loc 1 23 0
	movl	%eax, 24(%esp)
	jmp	.L261
.LVL352:
	.p2align 4,,7
	.p2align 3
.L256:
.LBE235:
.LBE245:
	.loc 1 338 0
	call	PyErr_BadArgument
.LVL353:
	.loc 1 339 0
	xorl	%eax, %eax
	jmp	.L273
	.cfi_endproc
.LFE157:
	.size	buffer_concat, .-buffer_concat
	.section	.rodata.str1.4
	.align 4
.LC15:
	.string	"right operand length must match slice length"
	.text
	.p2align 4,,15
	.type	buffer_ass_slice, @function
buffer_ass_slice:
.LFB162:
	.loc 1 490 0
	.cfi_startproc
.LVL354:
	pushl	%ebp
	.cfi_def_cfa_offset 8
	.cfi_offset 5, -8
	pushl	%edi
	.cfi_def_cfa_offset 12
	.cfi_offset 7, -12
	pushl	%esi
	.cfi_def_cfa_offset 16
	.cfi_offset 6, -16
	pushl	%ebx
	.cfi_def_cfa_offset 20
	.cfi_offset 3, -20
	subl	$44, %esp
	.cfi_def_cfa_offset 64
	.loc 1 490 0
	movl	64(%esp), %ebx
	movl	76(%esp), %edi
	.loc 1 497 0
	movl	24(%ebx), %esi
	testl	%esi, %esi
	jne	.L312
	.loc 1 503 0
	testl	%edi, %edi
	je	.L283
	.loc 1 503 0 is_stmt 0 discriminator 1
	movl	4(%edi), %eax
	movl	80(%eax), %ebp
.LVL355:
	.loc 1 504 0 is_stmt 1 discriminator 1
	testl	%ebp, %ebp
	je	.L283
	movl	0(%ebp), %eax
	testl	%eax, %eax
	je	.L283
	.loc 1 506 0
	movl	8(%ebp), %eax
	.loc 1 505 0
	testl	%eax, %eax
	je	.L283
	.loc 1 511 0
	movl	$0, 4(%esp)
	movl	%edi, (%esp)
	call	*%eax
.LVL356:
	cmpl	$1, %eax
	jne	.L313
.LVL357:
.LBB251:
.LBB252:
	.loc 1 21 0
	movl	8(%ebx), %eax
	testl	%eax, %eax
	je	.L314
.LBB253:
	.loc 1 29 0
	movl	4(%eax), %edx
	movl	80(%edx), %edx
.LVL358:
	.loc 1 30 0
	movl	$0, 4(%esp)
	movl	%eax, (%esp)
	movl	%edx, 12(%esp)
	call	*8(%edx)
.LVL359:
	movl	12(%esp), %edx
	cmpl	$1, %eax
	jne	.L315
	.loc 1 36 0
	movl	24(%ebx), %ecx
	.loc 1 38 0
	movl	4(%edx), %eax
	.loc 1 36 0
	testl	%ecx, %ecx
	cmovne	(%edx), %eax
.LVL360:
	.loc 1 39 0
	leal	24(%esp), %edx
.LVL361:
	movl	%edx, 8(%esp)
	movl	$0, 4(%esp)
	movl	8(%ebx), %edx
.LVL362:
	movl	%edx, (%esp)
	call	*%eax
.LVL363:
	testl	%eax, %eax
	js	.L289
	.loc 1 42 0
	movl	20(%ebx), %edx
	.loc 1 47 0
	movl	16(%ebx), %ebx
.LVL364:
	cmpl	%edx, %eax
	cmovle	%eax, %edx
.LVL365:
	.loc 1 46 0
	addl	%edx, 24(%esp)
	.loc 1 47 0
	cmpl	$-1, %ebx
	cmove	%eax, %ebx
.LVL366:
	.loc 1 51 0
	leal	(%ebx,%edx), %ecx
	movl	%ecx, 12(%esp)
.LVL367:
	.loc 1 52 0
	movl	%eax, %ecx
	subl	%edx, %ecx
	cmpl	12(%esp), %eax
	cmovl	%ecx, %ebx
.LVL368:
.L287:
.LBE253:
.LBE252:
.LBE251:
	.loc 1 520 0
	leal	28(%esp), %eax
	movl	%eax, 8(%esp)
	movl	$0, 4(%esp)
	movl	%edi, (%esp)
	call	*0(%ebp)
.LVL369:
	testl	%eax, %eax
	js	.L289
	.loc 1 523 0
	movl	68(%esp), %ecx
	.loc 1 524 0
	xorl	%edx, %edx
	.loc 1 523 0
	testl	%ecx, %ecx
	js	.L292
	cmpl	68(%esp), %ebx
	movl	%ebx, %edx
	cmovg	68(%esp), %edx
.L292:
.LVL370:
	xorl	%ecx, %ecx
	.loc 1 527 0
	cmpl	72(%esp), %edx
	jg	.L293
	cmpl	72(%esp), %ebx
	movl	%ebx, %ecx
	cmovg	72(%esp), %ecx
	subl	%edx, %ecx
.L293:
.LVL371:
	.loc 1 533 0
	cmpl	%ecx, %eax
	jne	.L316
	.loc 1 540 0
	testl	%eax, %eax
	je	.L303
.LVL372:
.LBB257:
.LBB258:
	.loc 2 51 0
	movl	%eax, 8(%esp)
	movl	28(%esp), %eax
.LVL373:
.LBE258:
.LBE257:
	.loc 1 541 0
	addl	24(%esp), %edx
.LVL374:
.LBB260:
.LBB259:
	.loc 2 51 0
	movl	%eax, 4(%esp)
	movl	%edx, (%esp)
	call	memcpy
.LVL375:
.L303:
.LBE259:
.LBE260:
	.loc 1 544 0
	addl	$44, %esp
	.cfi_remember_state
	.cfi_def_cfa_offset 20
	movl	%esi, %eax
	popl	%ebx
	.cfi_restore 3
	.cfi_def_cfa_offset 16
	popl	%esi
	.cfi_restore 6
	.cfi_def_cfa_offset 12
	popl	%edi
	.cfi_restore 7
	.cfi_def_cfa_offset 8
	popl	%ebp
	.cfi_restore 5
	.cfi_def_cfa_offset 4
	ret
.LVL376:
	.p2align 4,,7
	.p2align 3
.L315:
	.cfi_restore_state
.LBB261:
.LBB255:
.LBB254:
	.loc 1 31 0
	movl	PyExc_TypeError, %eax
	movl	$.LC0, 4(%esp)
	movl	%eax, (%esp)
	call	PyErr_SetString
.LVL377:
.L289:
.LBE254:
.LBE255:
.LBE261:
	.loc 1 544 0
	addl	$44, %esp
	.cfi_remember_state
	.cfi_def_cfa_offset 20
	.loc 1 519 0
	movl	$-1, %esi
	.loc 1 544 0
	popl	%ebx
	.cfi_restore 3
	.cfi_def_cfa_offset 16
	movl	%esi, %eax
	popl	%esi
	.cfi_restore 6
	.cfi_def_cfa_offset 12
	popl	%edi
	.cfi_restore 7
	.cfi_def_cfa_offset 8
	popl	%ebp
	.cfi_restore 5
	.cfi_def_cfa_offset 4
.LVL378:
	ret
.LVL379:
	.p2align 4,,7
	.p2align 3
.L314:
	.cfi_restore_state
.LBB262:
.LBB256:
	.loc 1 23 0
	movl	12(%ebx), %eax
	.loc 1 24 0
	movl	16(%ebx), %ebx
.LVL380:
	.loc 1 23 0
	movl	%eax, 24(%esp)
	jmp	.L287
.LVL381:
	.p2align 4,,7
	.p2align 3
.L313:
.LBE256:
.LBE262:
	.loc 1 514 0
	movl	PyExc_TypeError, %eax
	.loc 1 516 0
	movl	$-1, %esi
	.loc 1 514 0
	movl	$.LC0, 4(%esp)
	movl	%eax, (%esp)
	call	PyErr_SetString
.LVL382:
	.loc 1 516 0
	jmp	.L303
.LVL383:
	.p2align 4,,7
	.p2align 3
.L316:
	.loc 1 534 0
	movl	PyExc_TypeError, %eax
.LVL384:
	.loc 1 537 0
	movl	$-1, %esi
	.loc 1 534 0
	movl	$.LC15, 4(%esp)
	movl	%eax, (%esp)
	call	PyErr_SetString
.LVL385:
	.loc 1 537 0
	jmp	.L303
.LVL386:
	.p2align 4,,7
	.p2align 3
.L283:
	.loc 1 508 0
	call	PyErr_BadArgument
.LVL387:
	.loc 1 509 0
	movl	$-1, %esi
	.p2align 4,,3
	jmp	.L303
	.p2align 4,,7
	.p2align 3
.L312:
	.loc 1 498 0
	movl	PyExc_TypeError, %eax
	.loc 1 500 0
	movl	$-1, %esi
	.loc 1 498 0
	movl	$.LC11, 4(%esp)
	movl	%eax, (%esp)
	call	PyErr_SetString
.LVL388:
	.loc 1 500 0
	jmp	.L303
	.cfi_endproc
.LFE162:
	.size	buffer_ass_slice, .-buffer_ass_slice
	.section	.rodata.str1.4
	.align 4
.LC16:
	.string	"writable buffers are not hashable"
	.text
	.p2align 4,,15
	.type	buffer_hash, @function
buffer_hash:
.LFB154:
	.loc 1 265 0
	.cfi_startproc
.LVL389:
	pushl	%ebp
	.cfi_def_cfa_offset 8
	.cfi_offset 5, -8
	pushl	%edi
	.cfi_def_cfa_offset 12
	.cfi_offset 7, -12
	pushl	%esi
	.cfi_def_cfa_offset 16
	.cfi_offset 6, -16
	pushl	%ebx
	.cfi_def_cfa_offset 20
	.cfi_offset 3, -20
	subl	$44, %esp
	.cfi_def_cfa_offset 64
	.loc 1 265 0
	movl	64(%esp), %esi
	.loc 1 272 0
	movl	28(%esi), %ebx
	cmpl	$-1, %ebx
	je	.L335
.L333:
	.loc 1 301 0
	addl	$44, %esp
	.cfi_remember_state
	.cfi_def_cfa_offset 20
	movl	%ebx, %eax
	popl	%ebx
	.cfi_restore 3
	.cfi_def_cfa_offset 16
	popl	%esi
	.cfi_restore 6
	.cfi_def_cfa_offset 12
	popl	%edi
	.cfi_restore 7
	.cfi_def_cfa_offset 8
	popl	%ebp
	.cfi_restore 5
	.cfi_def_cfa_offset 4
	ret
	.p2align 4,,7
	.p2align 3
.L335:
	.cfi_restore_state
	.loc 1 282 0
	movl	24(%esi), %ecx
	testl	%ecx, %ecx
	je	.L336
.LVL390:
.LBB268:
.LBB269:
	.loc 1 21 0
	movl	8(%esi), %eax
	testl	%eax, %eax
	je	.L337
.LBB270:
	.loc 1 29 0
	movl	4(%eax), %edx
	movl	80(%edx), %edi
.LVL391:
	.loc 1 30 0
	movl	$0, 4(%esp)
	movl	%eax, (%esp)
	call	*8(%edi)
.LVL392:
	cmpl	$1, %eax
	jne	.L338
	.loc 1 36 0
	movl	24(%esi), %edx
	.loc 1 38 0
	movl	4(%edi), %eax
	.loc 1 36 0
	testl	%edx, %edx
	.loc 1 39 0
	leal	28(%esp), %edx
.LVL393:
	.loc 1 36 0
	cmovne	(%edi), %eax
.LVL394:
	.loc 1 39 0
	movl	%edx, 8(%esp)
	movl	$0, 4(%esp)
	movl	8(%esi), %edx
.LVL395:
	movl	%edx, (%esp)
	call	*%eax
.LVL396:
	testl	%eax, %eax
	js	.L333
	.loc 1 42 0
	movl	20(%esi), %ecx
	.loc 1 52 0
	movl	%eax, %ebp
	.loc 1 46 0
	movl	28(%esp), %edx
	.loc 1 47 0
	movl	16(%esi), %ebx
	cmpl	%ecx, %eax
	cmovle	%eax, %ecx
.LVL397:
	.loc 1 46 0
	addl	%ecx, %edx
	.loc 1 47 0
	cmpl	$-1, %ebx
	cmove	%eax, %ebx
.LVL398:
	.loc 1 52 0
	subl	%ecx, %ebp
	.loc 1 51 0
	leal	(%ebx,%ecx), %edi
.LVL399:
	.loc 1 52 0
	cmpl	%edi, %eax
	.loc 1 46 0
	movl	%edx, 28(%esp)
	.loc 1 52 0
	cmovl	%ebp, %ebx
.LVL400:
.L321:
.LBE270:
.LBE269:
.LBE268:
	.loc 1 293 0
	movzbl	(%edx), %eax
	sall	$7, %eax
.LVL401:
	.loc 1 294 0
	testl	%ebx, %ebx
	jle	.L328
	leal	(%edx,%ebx), %edi
.LVL402:
	.p2align 4,,7
	.p2align 3
.L329:
	.loc 1 295 0
	addl	$1, %edx
.LVL403:
	imull	$1000003, %eax, %ecx
	movzbl	-1(%edx), %eax
.LVL404:
	xorl	%ecx, %eax
.LVL405:
	.loc 1 294 0
	cmpl	%edi, %edx
	jne	.L329
.L328:
	.loc 1 296 0
	xorl	%ebx, %eax
.LVL406:
	.loc 1 298 0
	movl	$-2, %edx
.LVL407:
	cmpl	$-1, %eax
	cmove	%edx, %eax
.LVL408:
	.loc 1 299 0
	movl	%eax, 28(%esi)
	.loc 1 300 0
	movl	%eax, %ebx
.LVL409:
	.loc 1 301 0
	addl	$44, %esp
	.cfi_remember_state
	.cfi_def_cfa_offset 20
	movl	%ebx, %eax
	popl	%ebx
	.cfi_restore 3
	.cfi_def_cfa_offset 16
	popl	%esi
	.cfi_restore 6
	.cfi_def_cfa_offset 12
.LVL410:
	popl	%edi
	.cfi_restore 7
	.cfi_def_cfa_offset 8
	popl	%ebp
	.cfi_restore 5
	.cfi_def_cfa_offset 4
	ret
.LVL411:
	.p2align 4,,7
	.p2align 3
.L338:
	.cfi_restore_state
.LBB274:
.LBB272:
.LBB271:
	.loc 1 31 0
	movl	PyExc_TypeError, %eax
	movl	$.LC0, 4(%esp)
	movl	%eax, (%esp)
	call	PyErr_SetString
.LVL412:
.LBE271:
.LBE272:
.LBE274:
	.loc 1 301 0
	addl	$44, %esp
	.cfi_remember_state
	.cfi_def_cfa_offset 20
	movl	%ebx, %eax
	popl	%ebx
	.cfi_restore 3
	.cfi_def_cfa_offset 16
	popl	%esi
	.cfi_restore 6
	.cfi_def_cfa_offset 12
.LVL413:
	popl	%edi
	.cfi_restore 7
	.cfi_def_cfa_offset 8
.LVL414:
	popl	%ebp
	.cfi_restore 5
	.cfi_def_cfa_offset 4
	ret
.LVL415:
	.p2align 4,,7
	.p2align 3
.L337:
	.cfi_restore_state
.LBB275:
.LBB273:
	.loc 1 23 0
	movl	12(%esi), %edx
	.loc 1 24 0
	movl	16(%esi), %ebx
.LVL416:
	.loc 1 23 0
	movl	%edx, 28(%esp)
	jmp	.L321
.LVL417:
.L336:
.LBE273:
.LBE275:
.LBB276:
.LBB277:
	.loc 1 284 0
	movl	PyExc_TypeError, %eax
	movl	$.LC16, 4(%esp)
	movl	%eax, (%esp)
	call	PyErr_SetString
.LVL418:
	jmp	.L333
.LBE277:
.LBE276:
	.cfi_endproc
.LFE154:
	.size	buffer_hash, .-buffer_hash
	.p2align 4,,15
	.globl	PyBuffer_FromObject
	.type	PyBuffer_FromObject, @function
PyBuffer_FromObject:
.LFB145:
	.loc 1 117 0
	.cfi_startproc
.LVL419:
	pushl	%esi
	.cfi_def_cfa_offset 8
	.cfi_offset 6, -8
	pushl	%ebx
	.cfi_def_cfa_offset 12
	.cfi_offset 3, -12
	subl	$20, %esp
	.cfi_def_cfa_offset 32
	.loc 1 117 0
	movl	32(%esp), %ecx
	movl	36(%esp), %ebx
	.loc 1 118 0
	movl	4(%ecx), %edx
	movl	80(%edx), %eax
.LVL420:
	.loc 1 120 0
	testl	%eax, %eax
	je	.L340
	.loc 1 120 0 is_stmt 0 discriminator 1
	movl	(%eax), %esi
	testl	%esi, %esi
	je	.L340
	.loc 1 121 0 is_stmt 1
	movl	8(%eax), %eax
.LVL421:
	testl	%eax, %eax
	je	.L340
.LVL422:
.LBB290:
.LBB291:
	.loc 1 93 0
	testl	%ebx, %ebx
	js	.L364
	.loc 1 98 0
	cmpl	$PyBuffer_Type, %edx
	je	.L365
.L345:
.LVL423:
.LBB292:
.LBB293:
	.loc 1 64 0
	cmpl	$-1, 40(%esp)
	jl	.L351
	movl	%ecx, %esi
	jmp	.L350
.LVL424:
	.p2align 4,,7
	.p2align 3
.L365:
.LBE293:
.LBE292:
	.loc 1 98 0
	movl	8(%ecx), %esi
	testl	%esi, %esi
	je	.L345
.LVL425:
.LBB299:
	.loc 1 101 0
	movl	16(%ecx), %eax
	cmpl	$-1, %eax
	je	.L346
.LVL426:
	xorl	%edx, %edx
.LVL427:
	subl	%ebx, %eax
.LVL428:
	cmovns	%eax, %edx
.LVL429:
.LBB300:
	.loc 1 105 0
	cmpl	%edx, 40(%esp)
	jg	.L347
	cmpl	$-1, 40(%esp)
	jne	.L346
.L347:
.LVL430:
.LBE300:
	.loc 1 108 0
	addl	20(%ecx), %ebx
.LVL431:
	movl	%edx, 40(%esp)
.LVL432:
	jmp	.L348
.LVL433:
	.p2align 4,,7
	.p2align 3
.L346:
	addl	20(%ecx), %ebx
.LVL434:
.LBE299:
.LBB301:
.LBB296:
	.loc 1 64 0
	cmpl	$-1, 40(%esp)
	jl	.L351
.LVL435:
.L348:
	.loc 1 69 0
	testl	%ebx, %ebx
	js	.L364
.LVL436:
.L350:
	.loc 1 75 0
	movl	PyBuffer_Type+16, %eax
	movl	%eax, (%esp)
.LVL437:
	call	PyObject_Malloc
.LVL438:
	movl	$PyBuffer_Type, 4(%esp)
	movl	%eax, (%esp)
	call	PyObject_Init
.LVL439:
	.loc 1 76 0
	testl	%eax, %eax
	je	.L352
	.loc 1 79 0
	addl	$1, (%esi)
	.loc 1 80 0
	movl	%esi, 8(%eax)
	.loc 1 82 0
	movl	40(%esp), %esi
	.loc 1 81 0
	movl	$0, 12(%eax)
	.loc 1 83 0
	movl	%ebx, 20(%eax)
	.loc 1 84 0
	movl	$1, 24(%eax)
	.loc 1 82 0
	movl	%esi, 16(%eax)
	.loc 1 85 0
	movl	$-1, 28(%eax)
.LVL440:
.L362:
.LBE296:
.LBE301:
.LBE291:
.LBE290:
	.loc 1 129 0
	addl	$20, %esp
	.cfi_remember_state
	.cfi_def_cfa_offset 12
	popl	%ebx
	.cfi_restore 3
	.cfi_def_cfa_offset 8
	popl	%esi
	.cfi_restore 6
	.cfi_def_cfa_offset 4
	ret
.LVL441:
	.p2align 4,,7
	.p2align 3
.L340:
	.cfi_restore_state
	.loc 1 124 0
	movl	PyExc_TypeError, %eax
	movl	$.LC7, 4(%esp)
.LVL442:
	movl	%eax, (%esp)
	call	PyErr_SetString
.LVL443:
	.loc 1 125 0
	xorl	%eax, %eax
	jmp	.L362
.LVL444:
	.p2align 4,,7
	.p2align 3
.L364:
.LBB306:
.LBB304:
.LBB302:
.LBB297:
	.loc 1 70 0
	movl	PyExc_ValueError, %eax
	movl	$.LC8, 4(%esp)
.LVL445:
	movl	%eax, (%esp)
	call	PyErr_SetString
.LVL446:
	.loc 1 72 0
	xorl	%eax, %eax
	jmp	.L362
.LVL447:
.L352:
	.loc 1 76 0
	xorl	%eax, %eax
.LVL448:
.LBE297:
.LBE302:
.LBE304:
.LBE306:
	.loc 1 128 0
	jmp	.L362
.LVL449:
.L351:
.LBB307:
.LBB305:
.LBB303:
.LBB298:
.LBB294:
.LBB295:
	.loc 1 65 0
	movl	PyExc_ValueError, %eax
	movl	$.LC9, 4(%esp)
.LVL450:
	movl	%eax, (%esp)
	call	PyErr_SetString
.LVL451:
	xorl	%eax, %eax
	jmp	.L362
.LBE295:
.LBE294:
.LBE298:
.LBE303:
.LBE305:
.LBE307:
	.cfi_endproc
.LFE145:
	.size	PyBuffer_FromObject, .-PyBuffer_FromObject
	.p2align 4,,15
	.globl	PyBuffer_FromReadWriteObject
	.type	PyBuffer_FromReadWriteObject, @function
PyBuffer_FromReadWriteObject:
.LFB146:
	.loc 1 133 0
	.cfi_startproc
.LVL452:
	pushl	%esi
	.cfi_def_cfa_offset 8
	.cfi_offset 6, -8
	pushl	%ebx
	.cfi_def_cfa_offset 12
	.cfi_offset 3, -12
	subl	$20, %esp
	.cfi_def_cfa_offset 32
	.loc 1 133 0
	movl	32(%esp), %ecx
	movl	36(%esp), %ebx
	.loc 1 134 0
	movl	4(%ecx), %edx
	movl	80(%edx), %eax
.LVL453:
	.loc 1 136 0
	testl	%eax, %eax
	je	.L367
	.loc 1 136 0 is_stmt 0 discriminator 1
	movl	4(%eax), %esi
	testl	%esi, %esi
	je	.L367
	.loc 1 137 0 is_stmt 1
	movl	8(%eax), %eax
.LVL454:
	testl	%eax, %eax
	je	.L367
.LVL455:
.LBB320:
.LBB321:
	.loc 1 93 0
	testl	%ebx, %ebx
	js	.L391
	.loc 1 98 0
	cmpl	$PyBuffer_Type, %edx
	je	.L392
.L372:
.LVL456:
.LBB322:
.LBB323:
	.loc 1 64 0
	cmpl	$-1, 40(%esp)
	jl	.L378
	movl	%ecx, %esi
	jmp	.L377
.LVL457:
	.p2align 4,,7
	.p2align 3
.L392:
.LBE323:
.LBE322:
	.loc 1 98 0
	movl	8(%ecx), %esi
	testl	%esi, %esi
	je	.L372
.LVL458:
.LBB329:
	.loc 1 101 0
	movl	16(%ecx), %eax
	cmpl	$-1, %eax
	je	.L373
.LVL459:
	xorl	%edx, %edx
.LVL460:
	subl	%ebx, %eax
.LVL461:
	cmovns	%eax, %edx
.LVL462:
.LBB330:
	.loc 1 105 0
	cmpl	%edx, 40(%esp)
	jg	.L374
	cmpl	$-1, 40(%esp)
	jne	.L373
.L374:
.LVL463:
.LBE330:
	.loc 1 108 0
	addl	20(%ecx), %ebx
.LVL464:
	movl	%edx, 40(%esp)
.LVL465:
	jmp	.L375
.LVL466:
	.p2align 4,,7
	.p2align 3
.L373:
	addl	20(%ecx), %ebx
.LVL467:
.LBE329:
.LBB331:
.LBB326:
	.loc 1 64 0
	cmpl	$-1, 40(%esp)
	jl	.L378
.LVL468:
.L375:
	.loc 1 69 0
	testl	%ebx, %ebx
	js	.L391
.LVL469:
.L377:
	.loc 1 75 0
	movl	PyBuffer_Type+16, %eax
	movl	%eax, (%esp)
.LVL470:
	call	PyObject_Malloc
.LVL471:
	movl	$PyBuffer_Type, 4(%esp)
	movl	%eax, (%esp)
	call	PyObject_Init
.LVL472:
	.loc 1 76 0
	testl	%eax, %eax
	je	.L379
	.loc 1 79 0
	addl	$1, (%esi)
	.loc 1 80 0
	movl	%esi, 8(%eax)
	.loc 1 82 0
	movl	40(%esp), %esi
	.loc 1 81 0
	movl	$0, 12(%eax)
	.loc 1 83 0
	movl	%ebx, 20(%eax)
	.loc 1 84 0
	movl	$0, 24(%eax)
	.loc 1 82 0
	movl	%esi, 16(%eax)
	.loc 1 85 0
	movl	$-1, 28(%eax)
.LVL473:
.L389:
.LBE326:
.LBE331:
.LBE321:
.LBE320:
	.loc 1 145 0
	addl	$20, %esp
	.cfi_remember_state
	.cfi_def_cfa_offset 12
	popl	%ebx
	.cfi_restore 3
	.cfi_def_cfa_offset 8
	popl	%esi
	.cfi_restore 6
	.cfi_def_cfa_offset 4
	ret
.LVL474:
	.p2align 4,,7
	.p2align 3
.L367:
	.cfi_restore_state
	.loc 1 140 0
	movl	PyExc_TypeError, %eax
	movl	$.LC7, 4(%esp)
.LVL475:
	movl	%eax, (%esp)
	call	PyErr_SetString
.LVL476:
	.loc 1 141 0
	xorl	%eax, %eax
	jmp	.L389
.LVL477:
	.p2align 4,,7
	.p2align 3
.L391:
.LBB336:
.LBB334:
.LBB332:
.LBB327:
	.loc 1 70 0
	movl	PyExc_ValueError, %eax
	movl	$.LC8, 4(%esp)
.LVL478:
	movl	%eax, (%esp)
	call	PyErr_SetString
.LVL479:
	.loc 1 72 0
	xorl	%eax, %eax
	jmp	.L389
.LVL480:
.L379:
	.loc 1 76 0
	xorl	%eax, %eax
.LVL481:
.LBE327:
.LBE332:
.LBE334:
.LBE336:
	.loc 1 144 0
	jmp	.L389
.LVL482:
.L378:
.LBB337:
.LBB335:
.LBB333:
.LBB328:
.LBB324:
.LBB325:
	.loc 1 65 0
	movl	PyExc_ValueError, %eax
	movl	$.LC9, 4(%esp)
.LVL483:
	movl	%eax, (%esp)
	call	PyErr_SetString
.LVL484:
	xorl	%eax, %eax
	jmp	.L389
.LBE325:
.LBE324:
.LBE328:
.LBE333:
.LBE335:
.LBE337:
	.cfi_endproc
.LFE146:
	.size	PyBuffer_FromReadWriteObject, .-PyBuffer_FromReadWriteObject
	.p2align 4,,15
	.globl	PyBuffer_FromMemory
	.type	PyBuffer_FromMemory, @function
PyBuffer_FromMemory:
.LFB147:
	.loc 1 149 0
	.cfi_startproc
.LVL485:
	pushl	%ebx
	.cfi_def_cfa_offset 8
	.cfi_offset 3, -8
	subl	$24, %esp
	.cfi_def_cfa_offset 32
.LVL486:
	.loc 1 149 0
	movl	36(%esp), %ebx
.LBB342:
.LBB343:
	.loc 1 64 0
	cmpl	$-1, %ebx
	jl	.L398
	.loc 1 75 0
	movl	PyBuffer_Type+16, %eax
	movl	%eax, (%esp)
	call	PyObject_Malloc
.LVL487:
	movl	$PyBuffer_Type, 4(%esp)
	movl	%eax, (%esp)
	call	PyObject_Init
.LVL488:
	.loc 1 76 0
	testl	%eax, %eax
	je	.L396
	.loc 1 81 0
	movl	32(%esp), %edx
	.loc 1 80 0
	movl	$0, 8(%eax)
	.loc 1 82 0
	movl	%ebx, 16(%eax)
	.loc 1 83 0
	movl	$0, 20(%eax)
	.loc 1 81 0
	movl	%edx, 12(%eax)
	.loc 1 84 0
	movl	$1, 24(%eax)
	.loc 1 85 0
	movl	$-1, 28(%eax)
.LVL489:
.L395:
.LBE343:
.LBE342:
	.loc 1 151 0
	addl	$24, %esp
	.cfi_remember_state
	.cfi_def_cfa_offset 8
	popl	%ebx
	.cfi_restore 3
	.cfi_def_cfa_offset 4
.LVL490:
	ret
.LVL491:
	.p2align 4,,7
	.p2align 3
.L396:
	.cfi_restore_state
.LBB347:
.LBB346:
	.loc 1 76 0
	xorl	%eax, %eax
.LVL492:
	jmp	.L395
	.p2align 4,,7
	.p2align 3
.L398:
.LVL493:
.LBB344:
.LBB345:
	.loc 1 65 0
	movl	PyExc_ValueError, %eax
	movl	$.LC9, 4(%esp)
	movl	%eax, (%esp)
	call	PyErr_SetString
.LVL494:
	xorl	%eax, %eax
	jmp	.L395
.LBE345:
.LBE344:
.LBE346:
.LBE347:
	.cfi_endproc
.LFE147:
	.size	PyBuffer_FromMemory, .-PyBuffer_FromMemory
	.p2align 4,,15
	.globl	PyBuffer_FromReadWriteMemory
	.type	PyBuffer_FromReadWriteMemory, @function
PyBuffer_FromReadWriteMemory:
.LFB148:
	.loc 1 155 0
	.cfi_startproc
.LVL495:
	pushl	%ebx
	.cfi_def_cfa_offset 8
	.cfi_offset 3, -8
	subl	$24, %esp
	.cfi_def_cfa_offset 32
.LVL496:
	.loc 1 155 0
	movl	36(%esp), %ebx
.LBB352:
.LBB353:
	.loc 1 64 0
	cmpl	$-1, %ebx
	jl	.L404
	.loc 1 75 0
	movl	PyBuffer_Type+16, %eax
	movl	%eax, (%esp)
	call	PyObject_Malloc
.LVL497:
	movl	$PyBuffer_Type, 4(%esp)
	movl	%eax, (%esp)
	call	PyObject_Init
.LVL498:
	.loc 1 76 0
	testl	%eax, %eax
	je	.L402
	.loc 1 81 0
	movl	32(%esp), %edx
	.loc 1 80 0
	movl	$0, 8(%eax)
	.loc 1 82 0
	movl	%ebx, 16(%eax)
	.loc 1 83 0
	movl	$0, 20(%eax)
	.loc 1 81 0
	movl	%edx, 12(%eax)
	.loc 1 84 0
	movl	$0, 24(%eax)
	.loc 1 85 0
	movl	$-1, 28(%eax)
.LVL499:
.L401:
.LBE353:
.LBE352:
	.loc 1 157 0
	addl	$24, %esp
	.cfi_remember_state
	.cfi_def_cfa_offset 8
	popl	%ebx
	.cfi_restore 3
	.cfi_def_cfa_offset 4
.LVL500:
	ret
.LVL501:
	.p2align 4,,7
	.p2align 3
.L402:
	.cfi_restore_state
.LBB357:
.LBB356:
	.loc 1 76 0
	xorl	%eax, %eax
.LVL502:
	jmp	.L401
	.p2align 4,,7
	.p2align 3
.L404:
.LVL503:
.LBB354:
.LBB355:
	.loc 1 65 0
	movl	PyExc_ValueError, %eax
	movl	$.LC9, 4(%esp)
	movl	%eax, (%esp)
	call	PyErr_SetString
.LVL504:
	xorl	%eax, %eax
	jmp	.L401
.LBE355:
.LBE354:
.LBE356:
.LBE357:
	.cfi_endproc
.LFE148:
	.size	PyBuffer_FromReadWriteMemory, .-PyBuffer_FromReadWriteMemory
	.p2align 4,,15
	.globl	PyBuffer_New
	.type	PyBuffer_New, @function
PyBuffer_New:
.LFB149:
	.loc 1 161 0
	.cfi_startproc
.LVL505:
	pushl	%ebx
	.cfi_def_cfa_offset 8
	.cfi_offset 3, -8
	subl	$24, %esp
	.cfi_def_cfa_offset 32
	.loc 1 161 0
	movl	32(%esp), %ebx
	.loc 1 165 0
	testl	%ebx, %ebx
	js	.L412
	.loc 1 170 0
	movl	$2147483647, %eax
	subl	%ebx, %eax
	cmpl	$31, %eax
	jbe	.L411
	.loc 1 175 0
	leal	32(%ebx), %eax
	movl	%eax, (%esp)
	call	PyObject_Malloc
.LVL506:
	.loc 1 176 0
	testl	%eax, %eax
	je	.L411
	.loc 1 181 0
	leal	32(%eax), %edx
	.loc 1 178 0
	movl	$PyBuffer_Type, 4(%eax)
	movl	$1, (%eax)
.LVL507:
	.loc 1 180 0
	movl	$0, 8(%eax)
	.loc 1 181 0
	movl	%edx, 12(%eax)
	.loc 1 182 0
	movl	%ebx, 16(%eax)
	.loc 1 183 0
	movl	$0, 20(%eax)
	.loc 1 184 0
	movl	$0, 24(%eax)
	.loc 1 185 0
	movl	$-1, 28(%eax)
.LVL508:
.L407:
	.loc 1 188 0
	addl	$24, %esp
	.cfi_remember_state
	.cfi_def_cfa_offset 8
	popl	%ebx
	.cfi_restore 3
	.cfi_def_cfa_offset 4
	ret
	.p2align 4,,7
	.p2align 3
.L411:
	.cfi_restore_state
	addl	$24, %esp
	.cfi_remember_state
	.cfi_def_cfa_offset 8
	popl	%ebx
	.cfi_restore 3
	.cfi_def_cfa_offset 4
	.loc 1 177 0
	jmp	PyErr_NoMemory
.LVL509:
	.p2align 4,,7
	.p2align 3
.L412:
	.cfi_restore_state
	.loc 1 166 0
	movl	PyExc_ValueError, %eax
	movl	$.LC9, 4(%esp)
	movl	%eax, (%esp)
	call	PyErr_SetString
.LVL510:
	.loc 1 168 0
	xorl	%eax, %eax
	jmp	.L407
	.cfi_endproc
.LFE149:
	.size	PyBuffer_New, .-PyBuffer_New
	.globl	PyBuffer_Type
	.section	.rodata.str1.1
.LC17:
	.string	"buffer"
	.data
	.align 32
	.type	PyBuffer_Type, @object
	.size	PyBuffer_Type, 192
PyBuffer_Type:
	.long	1
	.long	PyType_Type
	.long	0
	.long	.LC17
	.long	32
	.long	0
	.long	buffer_dealloc
	.long	0
	.long	0
	.long	0
	.long	buffer_compare
	.long	buffer_repr
	.long	0
	.long	buffer_as_sequence
	.long	0
	.long	buffer_hash
	.long	0
	.long	buffer_str
	.long	PyObject_GenericGetAttr
	.long	0
	.long	buffer_as_buffer
	.long	491
	.long	buffer_doc
	.long	0
	.long	0
	.long	0
	.long	0
	.long	0
	.long	0
	.long	0
	.long	0
	.long	0
	.long	0
	.long	0
	.long	0
	.long	0
	.long	0
	.long	0
	.long	0
	.long	buffer_new
	.zero	32
	.align 4
	.type	buffer_as_buffer, @object
	.size	buffer_as_buffer, 16
buffer_as_buffer:
	.long	buffer_getreadbuf
	.long	buffer_getwritebuf
	.long	buffer_getsegcount
	.long	buffer_getcharbuf
	.align 32
	.type	buffer_as_sequence, @object
	.size	buffer_as_sequence, 40
buffer_as_sequence:
	.long	buffer_length
	.long	buffer_concat
	.long	buffer_repeat
	.long	buffer_item
	.long	buffer_slice
	.long	buffer_ass_item
	.long	buffer_ass_slice
	.zero	12
	.align 32
	.type	buffer_doc, @object
	.size	buffer_doc, 295
buffer_doc:
	.ascii	"buffer(object [, offset[, size]])\n\nCre"
	.string	"ate a new buffer object which references the given object.\nThe buffer will reference a slice of the target object from the\nstart of the object (or at the specified offset). The slice will\nextend to the end of the target object (or with the specified size)."
	.text
.Letext0:
	.file 3 "/usr/lib/gcc/x86_64-linux-gnu/4.8/include/stddef.h"
	.file 4 "/usr/include/bits/types.h"
	.file 5 "/usr/include/stdio.h"
	.file 6 "/usr/include/libio.h"
	.file 7 "./Include/object.h"
	.file 8 "./Include/methodobject.h"
	.file 9 "./Include/descrobject.h"
	.file 10 "./Include/stringobject.h"
	.file 11 "./Include/pyerrors.h"
	.file 12 "./Include/objimpl.h"
	.file 13 "./Include/modsupport.h"
	.file 14 "/usr/include/string.h"
	.section	.note.GNU-stack,"",@progbits
