	.file	"codecsX.c"
	.text
.Ltext0:
	.section	.text.unlikely,"ax",@progbits
.LCOLDB0:
	.text
.LHOTB0:
	.p2align 4,,15
	.section	.text.unlikely
.Ltext_cold0:
	.text
	.type	replace_errors, @function
replace_errors:
.LFB76:
	.file 1 "/media/sf_Turbu/Debug/codecsX.c"
	.loc 1 251 0
	.cfi_startproc
.LVL0:
	.loc 1 252 0
	movl	8(%esp), %eax
	movl	%eax, 4(%esp)
.LVL1:
	jmp	PyCodec_ReplaceErrors
.LVL2:
	.cfi_endproc
.LFE76:
	.size	replace_errors, .-replace_errors
	.section	.text.unlikely
.LCOLDE0:
	.text
.LHOTE0:
	.section	.text.unlikely
.LCOLDB1:
	.text
.LHOTB1:
	.p2align 4,,15
	.type	ignore_errors, @function
ignore_errors:
.LFB75:
	.loc 1 245 0
	.cfi_startproc
.LVL3:
	.loc 1 246 0
	movl	8(%esp), %eax
	movl	%eax, 4(%esp)
.LVL4:
	jmp	PyCodec_IgnoreErrors
.LVL5:
	.cfi_endproc
.LFE75:
	.size	ignore_errors, .-ignore_errors
	.section	.text.unlikely
.LCOLDE1:
	.text
.LHOTE1:
	.section	.text.unlikely
.LCOLDB2:
	.text
.LHOTB2:
	.p2align 4,,15
	.type	strict_errors, @function
strict_errors:
.LFB74:
	.loc 1 238 0
	.cfi_startproc
.LVL6:
	.loc 1 239 0
	movl	8(%esp), %eax
	movl	%eax, 4(%esp)
.LVL7:
	jmp	PyCodec_StrictErrors
.LVL8:
	.cfi_endproc
.LFE74:
	.size	strict_errors, .-strict_errors
	.section	.text.unlikely
.LCOLDE2:
	.text
.LHOTE2:
	.section	.rodata.str1.1,"aMS",@progbits,1
.LC3:
	.string	"(Oi)"
	.section	.text.unlikely
.LCOLDB4:
	.text
.LHOTB4:
	.p2align 4,,15
	.type	backslashreplace_errors, @function
backslashreplace_errors:
.LFB78:
	.loc 1 263 0
	.cfi_startproc
.LVL9:
	pushl	%ebp
	.cfi_def_cfa_offset 8
	.cfi_offset 5, -8
	pushl	%edi
	.cfi_def_cfa_offset 12
	.cfi_offset 7, -12
	pushl	%esi
	.cfi_def_cfa_offset 16
	.cfi_offset 6, -16
	pushl	%ebx
	.cfi_def_cfa_offset 20
	.cfi_offset 3, -20
	subl	$52, %esp
	.cfi_def_cfa_offset 72
	.loc 1 263 0
	movl	76(%esp), %ebx
.LVL10:
.LBB7:
.LBB8:
	.loc 1 166 0
	pushl	PyExc_UnicodeEncodeError
	.cfi_def_cfa_offset 76
	pushl	%ebx
	.cfi_def_cfa_offset 80
	call	PyObject_IsInstance
.LVL11:
	addl	$16, %esp
	.cfi_def_cfa_offset 64
	testl	%eax, %eax
	je	.L5
.LBB9:
	.loc 1 176 0
	subl	$8, %esp
	.cfi_def_cfa_offset 72
	leal	32(%esp), %eax
	pushl	%eax
	.cfi_def_cfa_offset 76
	pushl	%ebx
	.cfi_def_cfa_offset 80
	call	PyUnicodeEncodeError_GetStart
.LVL12:
	addl	$16, %esp
	.cfi_def_cfa_offset 64
	testl	%eax, %eax
	je	.L32
.LVL13:
.L30:
.LBE9:
.LBB14:
	.loc 1 232 0
	xorl	%eax, %eax
.L18:
.LBE14:
.LBE8:
.LBE7:
	.loc 1 265 0
	addl	$44, %esp
	.cfi_remember_state
	.cfi_def_cfa_offset 20
	popl	%ebx
	.cfi_restore 3
	.cfi_def_cfa_offset 16
	popl	%esi
	.cfi_restore 6
	.cfi_def_cfa_offset 12
	popl	%edi
	.cfi_restore 7
	.cfi_def_cfa_offset 8
	popl	%ebp
	.cfi_restore 5
	.cfi_def_cfa_offset 4
	ret
.LVL14:
	.p2align 4,,10
	.p2align 3
.L32:
	.cfi_restore_state
.LBB19:
.LBB18:
.LBB15:
	.loc 1 178 0
	subl	$8, %esp
	.cfi_def_cfa_offset 72
	leal	36(%esp), %eax
	pushl	%eax
	.cfi_def_cfa_offset 76
	pushl	%ebx
	.cfi_def_cfa_offset 80
	call	PyUnicodeEncodeError_GetEnd
.LVL15:
	addl	$16, %esp
	.cfi_def_cfa_offset 64
	testl	%eax, %eax
	jne	.L30
	.loc 1 180 0
	subl	$12, %esp
	.cfi_def_cfa_offset 76
	pushl	%ebx
	.cfi_def_cfa_offset 80
	call	PyUnicodeEncodeError_GetObject
.LVL16:
	movl	%eax, 24(%esp)
.LVL17:
	addl	$16, %esp
	.cfi_def_cfa_offset 64
	testl	%eax, %eax
	je	.L30
	.loc 1 182 0
	movl	12(%eax), %edi
.LVL18:
	.loc 1 183 0
	movl	24(%esp), %eax
.LVL19:
	leal	(%edi,%eax,2), %edx
.LVL20:
	movl	28(%esp), %eax
	leal	(%edi,%eax,2), %ebx
.LVL21:
	xorl	%eax, %eax
	cmpl	%ebx, %edx
	jnb	.L9
.LVL22:
	.p2align 4,,10
	.p2align 3
.L12:
	.loc 1 190 0
	leal	6(%eax), %ecx
	addl	$4, %eax
	cmpw	$255, (%edx)
	jbe	.L11
	movl	%ecx, %eax
.L11:
	.loc 1 183 0
	addl	$2, %edx
.LVL23:
	cmpl	%ebx, %edx
	jb	.L12
.L9:
	.loc 1 195 0
	subl	$8, %esp
	.cfi_def_cfa_offset 72
	pushl	%eax
	.cfi_def_cfa_offset 76
	pushl	$0
	.cfi_def_cfa_offset 80
	call	PyUnicodeUCS2_FromUnicode
.LVL24:
	.loc 1 196 0
	addl	$16, %esp
	.cfi_def_cfa_offset 64
	testl	%eax, %eax
	.loc 1 195 0
	movl	%eax, %ebp
.LVL25:
	.loc 1 196 0
	je	.L30
	.loc 1 198 0
	movl	24(%esp), %eax
.LVL26:
	movl	12(%ebp), %ecx
	leal	(%edi,%eax,2), %ebx
.LVL27:
	.loc 1 199 0
	movl	28(%esp), %eax
	leal	(%edi,%eax,2), %edx
	.loc 1 198 0
	cmpl	%edx, %ebx
	jb	.L16
	jmp	.L13
.LVL28:
	.p2align 4,,10
	.p2align 3
.L33:
.LBB10:
	.loc 1 216 0
	movl	%eax, %edx
	.loc 1 217 0
	movl	%eax, %esi
	.loc 1 216 0
	shrw	$12, %dx
	.loc 1 217 0
	shrw	$8, %si
	.loc 1 216 0
	movzwl	%dx, %edx
	.loc 1 217 0
	andl	$15, %esi
	.loc 1 216 0
	movzwl	hexdigits(%edx,%edx), %edx
	.loc 1 217 0
	movzwl	hexdigits(%esi,%esi), %esi
	.loc 1 216 0
	movw	%dx, 4(%ecx)
	.loc 1 217 0
	leal	8(%ecx), %edx
.LVL29:
	movw	%si, 6(%ecx)
	.loc 1 215 0
	movl	$117, %esi
.L15:
	movw	%si, 2(%ecx)
.LVL30:
	.loc 1 221 0
	movl	%eax, %ecx
	.loc 1 222 0
	andl	$15, %eax
.LVL31:
	.loc 1 221 0
	shrw	$4, %cx
.LVL32:
	.loc 1 222 0
	movzwl	hexdigits(%eax,%eax), %eax
.LBE10:
	.loc 1 199 0
	addl	$2, %ebx
.LVL33:
.LBB11:
	.loc 1 221 0
	andl	$15, %ecx
	movzwl	hexdigits(%ecx,%ecx), %ecx
	.loc 1 222 0
	movw	%ax, 2(%edx)
	.loc 1 221 0
	movw	%cx, (%edx)
.LBE11:
	.loc 1 199 0
	movl	28(%esp), %eax
.LBB12:
	.loc 1 222 0
	leal	4(%edx), %ecx
.LVL34:
.LBE12:
	.loc 1 199 0
	leal	(%edi,%eax,2), %edx
	.loc 1 198 0
	cmpl	%edx, %ebx
	jnb	.L13
.L16:
.LBB13:
	.loc 1 200 0
	movzwl	(%ebx), %eax
.LVL35:
	.loc 1 201 0
	movl	$92, %edx
	movw	%dx, (%ecx)
	.loc 1 214 0
	cmpw	$255, %ax
	ja	.L33
	.loc 1 220 0
	leal	4(%ecx), %edx
.LVL36:
	movl	$120, %esi
	jmp	.L15
.LVL37:
	.p2align 4,,10
	.p2align 3
.L13:
.LBE13:
	.loc 1 225 0
	subl	$4, %esp
	.cfi_def_cfa_offset 68
	pushl	%eax
	.cfi_def_cfa_offset 72
	pushl	%ebp
	.cfi_def_cfa_offset 76
	pushl	$.LC3
	.cfi_def_cfa_offset 80
	call	Py_BuildValue
.LVL38:
	.loc 1 226 0
	movl	0(%ebp), %edi
.LVL39:
	addl	$16, %esp
	.cfi_def_cfa_offset 64
	leal	-1(%edi), %edx
	testl	%edx, %edx
	movl	%edx, 0(%ebp)
	je	.L34
.LVL40:
.L17:
	.loc 1 227 0
	movl	8(%esp), %edi
	movl	(%edi), %esi
	leal	-1(%esi), %edx
	movl	%esi, 12(%esp)
	testl	%edx, %edx
	movl	%edx, (%edi)
	jne	.L18
	movl	%eax, 12(%esp)
	subl	$12, %esp
	.cfi_def_cfa_offset 76
	movl	20(%esp), %eax
	movl	4(%eax), %edx
	pushl	%eax
	.cfi_def_cfa_offset 80
	call	*24(%edx)
.LVL41:
	addl	$16, %esp
	.cfi_def_cfa_offset 64
	movl	12(%esp), %eax
	jmp	.L18
.LVL42:
	.p2align 4,,10
	.p2align 3
.L5:
.LBE15:
.LBB16:
	.loc 1 231 0
	subl	$12, %esp
	.cfi_def_cfa_offset 76
	pushl	%ebx
	.cfi_def_cfa_offset 80
	call	wrong_exception_type
.LVL43:
	addl	$16, %esp
	.cfi_def_cfa_offset 64
	jmp	.L30
.LVL44:
	.p2align 4,,10
	.p2align 3
.L34:
	movl	%eax, 12(%esp)
.LBE16:
.LBB17:
	.loc 1 226 0
	movl	4(%ebp), %edx
	subl	$12, %esp
	.cfi_def_cfa_offset 76
	pushl	%ebp
	.cfi_def_cfa_offset 80
	call	*24(%edx)
.LVL45:
	addl	$16, %esp
	.cfi_def_cfa_offset 64
	movl	12(%esp), %eax
	jmp	.L17
.LBE17:
.LBE18:
.LBE19:
	.cfi_endproc
.LFE78:
	.size	backslashreplace_errors, .-backslashreplace_errors
	.section	.text.unlikely
.LCOLDE4:
	.text
.LHOTE4:
	.section	.rodata.str1.4,"aMS",@progbits,1
	.align 4
.LC5:
	.string	"can't initialize codec error registry"
	.align 4
.LC6:
	.string	"can't initialize codec registry"
	.section	.rodata.str1.1
.LC7:
	.string	"encodings"
.LC8:
	.string	"handler must be callable"
	.section	.text.unlikely
.LCOLDB9:
	.text
.LHOTB9:
	.p2align 4,,15
	.globl	PyCodec_RegisterError
	.type	PyCodec_RegisterError, @function
PyCodec_RegisterError:
.LFB71:
	.loc 1 36 0
	.cfi_startproc
.LVL46:
	pushl	%ebp
	.cfi_def_cfa_offset 8
	.cfi_offset 5, -8
	pushl	%edi
	.cfi_def_cfa_offset 12
	.cfi_offset 7, -12
	pushl	%esi
	.cfi_def_cfa_offset 16
	.cfi_offset 6, -16
	pushl	%ebx
	.cfi_def_cfa_offset 20
	.cfi_offset 3, -20
	subl	$28, %esp
	.cfi_def_cfa_offset 48
	.loc 1 37 0
	movl	_PyThreadState_Current, %eax
	.loc 1 36 0
	movl	52(%esp), %esi
	.loc 1 37 0
	movl	4(%eax), %ebx
.LVL47:
	.loc 1 38 0
	movl	20(%ebx), %edi
	testl	%edi, %edi
	je	.L58
.L36:
	.loc 1 40 0
	subl	$12, %esp
	.cfi_def_cfa_offset 60
	pushl	%esi
	.cfi_def_cfa_offset 64
	call	PyCallable_Check
.LVL48:
	addl	$16, %esp
	.cfi_def_cfa_offset 48
	testl	%eax, %eax
	je	.L59
	.loc 1 44 0
	subl	$4, %esp
	.cfi_def_cfa_offset 52
	pushl	%esi
	.cfi_def_cfa_offset 56
	pushl	56(%esp)
	.cfi_def_cfa_offset 60
	pushl	28(%ebx)
	.cfi_def_cfa_offset 64
	call	PyDict_SetItemString
.LVL49:
	addl	$16, %esp
	.cfi_def_cfa_offset 48
.L47:
	.loc 1 46 0
	addl	$28, %esp
	.cfi_remember_state
	.cfi_def_cfa_offset 20
	popl	%ebx
	.cfi_restore 3
	.cfi_def_cfa_offset 16
.LVL50:
	popl	%esi
	.cfi_restore 6
	.cfi_def_cfa_offset 12
	popl	%edi
	.cfi_restore 7
	.cfi_def_cfa_offset 8
	popl	%ebp
	.cfi_restore 5
	.cfi_def_cfa_offset 4
	ret
.LVL51:
	.p2align 4,,10
	.p2align 3
.L58:
	.cfi_restore_state
.LBB25:
.LBB26:
	.loc 1 326 0
	subl	$12, %esp
	.cfi_def_cfa_offset 60
	movl	$methods.8510+4, %edi
	pushl	$0
	.cfi_def_cfa_offset 64
	call	PyList_New
.LVL52:
	movl	%eax, 20(%ebx)
	.loc 1 327 0
	call	PyDict_New
.LVL53:
	movl	%eax, 24(%ebx)
	.loc 1 328 0
	call	PyDict_New
.LVL54:
	.loc 1 330 0
	addl	$16, %esp
	.cfi_def_cfa_offset 48
	testl	%eax, %eax
	.loc 1 328 0
	movl	%eax, 28(%ebx)
	.loc 1 330 0
	je	.L44
.L53:
.LBB27:
	.loc 1 332 0
	subl	$4, %esp
	.cfi_def_cfa_offset 52
	pushl	$0
	.cfi_def_cfa_offset 56
	pushl	$0
	.cfi_def_cfa_offset 60
	pushl	%edi
	.cfi_def_cfa_offset 64
	call	PyCFunction_NewEx
.LVL55:
	.loc 1 334 0
	addl	$16, %esp
	.cfi_def_cfa_offset 48
	testl	%eax, %eax
	.loc 1 332 0
	movl	%eax, %ebp
.LVL56:
	.loc 1 334 0
	je	.L60
.LVL57:
.L40:
	.loc 1 336 0
	subl	$8, %esp
	.cfi_def_cfa_offset 56
	pushl	%ebp
	.cfi_def_cfa_offset 60
	pushl	-4(%edi)
	.cfi_def_cfa_offset 64
	call	PyCodec_RegisterError
.LVL58:
	.loc 1 337 0
	movl	0(%ebp), %ecx
	addl	$16, %esp
	.cfi_def_cfa_offset 48
	leal	-1(%ecx), %edx
	testl	%edx, %edx
	movl	%edx, 0(%ebp)
	je	.L61
.LVL59:
.L41:
	.loc 1 338 0
	testl	%eax, %eax
	jne	.L62
.L42:
.LVL60:
	addl	$20, %edi
.LBE27:
	.loc 1 331 0
	cmpl	$methods.8510+104, %edi
	jne	.L53
.LVL61:
.L44:
	.loc 1 343 0
	movl	20(%ebx), %ecx
	testl	%ecx, %ecx
	je	.L38
	movl	24(%ebx), %edx
	testl	%edx, %edx
	je	.L38
	.loc 1 344 0
	movl	28(%ebx), %eax
	testl	%eax, %eax
	je	.L38
.L45:
	.loc 1 348 0
	pushl	$0
	.cfi_def_cfa_offset 52
	pushl	$0
	.cfi_def_cfa_offset 56
	pushl	$0
	.cfi_def_cfa_offset 60
	pushl	$.LC7
	.cfi_def_cfa_offset 64
	call	PyImport_ImportModuleEx
.LVL62:
	.loc 1 349 0
	addl	$16, %esp
	.cfi_def_cfa_offset 48
	testl	%eax, %eax
	je	.L63
	.loc 1 361 0
	movl	(%eax), %ecx
	leal	-1(%ecx), %edx
	testl	%edx, %edx
	movl	%edx, (%eax)
	jne	.L36
	subl	$12, %esp
	.cfi_def_cfa_offset 60
	movl	4(%eax), %edx
	pushl	%eax
	.cfi_def_cfa_offset 64
	call	*24(%edx)
.LVL63:
	addl	$16, %esp
	.cfi_def_cfa_offset 48
	jmp	.L36
.LVL64:
	.p2align 4,,10
	.p2align 3
.L62:
.LBB28:
	.loc 1 339 0
	subl	$12, %esp
	.cfi_def_cfa_offset 60
	pushl	$.LC5
	.cfi_def_cfa_offset 64
	call	Py_FatalError
.LVL65:
	addl	$16, %esp
	.cfi_def_cfa_offset 48
	jmp	.L42
.LVL66:
	.p2align 4,,10
	.p2align 3
.L61:
	movl	%eax, 12(%esp)
	.loc 1 337 0
	movl	4(%ebp), %edx
	subl	$12, %esp
	.cfi_def_cfa_offset 60
	pushl	%ebp
	.cfi_def_cfa_offset 64
	call	*24(%edx)
.LVL67:
	addl	$16, %esp
	.cfi_def_cfa_offset 48
	movl	12(%esp), %eax
	jmp	.L41
.LVL68:
	.p2align 4,,10
	.p2align 3
.L59:
.LBE28:
.LBE26:
.LBE25:
.LBB31:
.LBB32:
	.loc 1 41 0
	subl	$8, %esp
	.cfi_def_cfa_offset 56
	pushl	$.LC8
	.cfi_def_cfa_offset 60
	pushl	PyExc_TypeError
	.cfi_def_cfa_offset 64
	call	PyErr_SetString
.LVL69:
	addl	$16, %esp
	.cfi_def_cfa_offset 48
	movl	$-1, %eax
	jmp	.L47
.LVL70:
.L38:
.LBE32:
.LBE31:
.LBB33:
.LBB30:
	.loc 1 346 0
	subl	$12, %esp
	.cfi_def_cfa_offset 60
	pushl	$.LC6
	.cfi_def_cfa_offset 64
	call	Py_FatalError
.LVL71:
	addl	$16, %esp
	.cfi_def_cfa_offset 48
	jmp	.L45
.LVL72:
.L60:
.LBB29:
	.loc 1 335 0
	subl	$12, %esp
	.cfi_def_cfa_offset 60
	pushl	$.LC5
	.cfi_def_cfa_offset 64
	call	Py_FatalError
.LVL73:
	addl	$16, %esp
	.cfi_def_cfa_offset 48
	jmp	.L40
.LVL74:
.L63:
.LBE29:
	.loc 1 350 0
	subl	$12, %esp
	.cfi_def_cfa_offset 60
	pushl	PyExc_ImportError
	.cfi_def_cfa_offset 64
	call	PyErr_ExceptionMatches
.LVL75:
	addl	$16, %esp
	.cfi_def_cfa_offset 48
	testl	%eax, %eax
	je	.L50
	.loc 1 356 0
	call	PyErr_Clear
.LVL76:
	jmp	.L36
.L50:
.LBE30:
.LBE33:
	.loc 1 39 0
	orl	$-1, %eax
	jmp	.L47
	.cfi_endproc
.LFE71:
	.size	PyCodec_RegisterError, .-PyCodec_RegisterError
	.section	.text.unlikely
.LCOLDE9:
	.text
.LHOTE9:
	.section	.text.unlikely
.LCOLDB10:
	.text
.LHOTB10:
	.p2align 4,,15
	.globl	PyCodec_XMLCharRefReplaceErrors
	.type	PyCodec_XMLCharRefReplaceErrors, @function
PyCodec_XMLCharRefReplaceErrors:
.LFB72:
	.loc 1 53 0
	.cfi_startproc
.LVL77:
	pushl	%ebp
	.cfi_def_cfa_offset 8
	.cfi_offset 5, -8
	pushl	%edi
	.cfi_def_cfa_offset 12
	.cfi_offset 7, -12
	pushl	%esi
	.cfi_def_cfa_offset 16
	.cfi_offset 6, -16
	pushl	%ebx
	.cfi_def_cfa_offset 20
	.cfi_offset 3, -20
	subl	$68, %esp
	.cfi_def_cfa_offset 88
	.loc 1 53 0
	movl	88(%esp), %ebx
	.loc 1 54 0
	pushl	PyExc_UnicodeEncodeError
	.cfi_def_cfa_offset 92
	pushl	%ebx
	.cfi_def_cfa_offset 96
	call	PyObject_IsInstance
.LVL78:
	addl	$16, %esp
	.cfi_def_cfa_offset 80
	testl	%eax, %eax
	je	.L65
.LBB34:
	.loc 1 64 0
	subl	$8, %esp
	.cfi_def_cfa_offset 88
	leal	48(%esp), %eax
	pushl	%eax
	.cfi_def_cfa_offset 92
	pushl	%ebx
	.cfi_def_cfa_offset 96
	call	PyUnicodeEncodeError_GetStart
.LVL79:
	addl	$16, %esp
	.cfi_def_cfa_offset 80
	testl	%eax, %eax
	je	.L99
.L98:
	.loc 1 96 0 discriminator 1
	xorl	%eax, %eax
.L93:
.LBE34:
	.loc 1 157 0
	addl	$60, %esp
	.cfi_remember_state
	.cfi_def_cfa_offset 20
	popl	%ebx
	.cfi_restore 3
	.cfi_def_cfa_offset 16
	popl	%esi
	.cfi_restore 6
	.cfi_def_cfa_offset 12
	popl	%edi
	.cfi_restore 7
	.cfi_def_cfa_offset 8
	popl	%ebp
	.cfi_restore 5
	.cfi_def_cfa_offset 4
	ret
	.p2align 4,,10
	.p2align 3
.L99:
	.cfi_restore_state
.LBB39:
	.loc 1 66 0
	subl	$8, %esp
	.cfi_def_cfa_offset 88
	leal	52(%esp), %eax
	pushl	%eax
	.cfi_def_cfa_offset 92
	pushl	%ebx
	.cfi_def_cfa_offset 96
	call	PyUnicodeEncodeError_GetEnd
.LVL80:
	addl	$16, %esp
	.cfi_def_cfa_offset 80
	testl	%eax, %eax
	jne	.L98
	.loc 1 68 0
	subl	$12, %esp
	.cfi_def_cfa_offset 92
	pushl	%ebx
	.cfi_def_cfa_offset 96
	call	PyUnicodeEncodeError_GetObject
.LVL81:
	movl	%eax, 44(%esp)
.LVL82:
	addl	$16, %esp
	.cfi_def_cfa_offset 80
	testl	%eax, %eax
	je	.L98
	.loc 1 70 0
	movl	12(%eax), %eax
.LVL83:
	.loc 1 71 0
	movl	44(%esp), %edx
	xorl	%ecx, %ecx
	.loc 1 70 0
	movl	%eax, %edi
	movl	%eax, 20(%esp)
.LVL84:
	.loc 1 71 0
	movl	40(%esp), %eax
.LVL85:
	leal	(%edi,%edx,2), %ebx
	leal	(%edi,%eax,2), %eax
.LVL86:
	cmpl	%ebx, %eax
	jb	.L75
	jmp	.L69
.LVL87:
	.p2align 4,,10
	.p2align 3
.L100:
	.loc 1 73 0
	addl	$4, %ecx
.LVL88:
.L71:
	.loc 1 71 0 discriminator 2
	addl	$2, %eax
.LVL89:
	cmpl	%ebx, %eax
	jnb	.L69
.LVL90:
.L75:
	.loc 1 72 0
	movzwl	(%eax), %edx
	cmpw	$9, %dx
	jbe	.L100
	.loc 1 74 0
	cmpw	$99, %dx
	ja	.L72
	.loc 1 71 0
	addl	$2, %eax
.LVL91:
	.loc 1 75 0
	addl	$5, %ecx
.LVL92:
	.loc 1 71 0
	cmpl	%ebx, %eax
	jb	.L75
.LVL93:
.L69:
	.loc 1 93 0
	subl	$8, %esp
	.cfi_def_cfa_offset 88
	pushl	%ecx
	.cfi_def_cfa_offset 92
	pushl	$0
	.cfi_def_cfa_offset 96
	call	PyUnicodeUCS2_FromUnicode
.LVL94:
	movl	%eax, 40(%esp)
.LVL95:
	.loc 1 94 0
	addl	$16, %esp
	.cfi_def_cfa_offset 80
	testl	%eax, %eax
	je	.L101
	.loc 1 99 0
	movl	40(%esp), %eax
.LVL96:
	movl	20(%esp), %esi
	leal	(%esi,%eax,2), %edi
.LVL97:
	movl	24(%esp), %eax
	movl	12(%eax), %ecx
.LVL98:
	.loc 1 100 0
	movl	44(%esp), %eax
	leal	(%esi,%eax,2), %edx
	.loc 1 99 0
	cmpl	%edx, %edi
	jb	.L80
	jmp	.L77
.LVL99:
	.p2align 4,,10
	.p2align 3
.L102:
.LBB35:
	.loc 1 110 0
	cmpw	$99, %dx
	jbe	.L87
	.loc 1 114 0
	cmpw	$999, %dx
	jbe	.L88
	.loc 1 118 0
	cmpw	$10000, %dx
	sbbl	%esi, %esi
	addl	$4, %esi
	cmpw	$10000, %dx
	sbbl	%ebx, %ebx
	andl	$-9000, %ebx
	addl	$10000, %ebx
.L79:
.LVL100:
	.loc 1 142 0
	cltd
	idivl	%ebx
.LVL101:
	addl	$48, %eax
	movl	%edx, 12(%esp)
	movw	%ax, 4(%ecx)
	.loc 1 144 0
	movl	$1717986919, %eax
	imull	%ebx
	.loc 1 142 0
	movl	12(%esp), %eax
	.loc 1 144 0
	sarl	$31, %ebx
.LVL102:
	sarl	$2, %edx
	movl	%edx, %ebp
	.loc 1 142 0
	cltd
	.loc 1 144 0
	subl	%ebx, %ebp
.LVL103:
	.loc 1 142 0
	idivl	%ebp
	addl	$48, %eax
	movl	%edx, 16(%esp)
	movw	%ax, 6(%ecx)
.LVL104:
	.loc 1 144 0
	movl	$1717986919, %eax
	imull	%ebp
	sarl	$31, %ebp
.LVL105:
	.loc 1 141 0
	movl	%esi, %eax
	.loc 1 144 0
	sarl	$2, %edx
	movl	%edx, %ebx
	subl	%ebp, %ebx
.LVL106:
	.loc 1 141 0
	subl	$1, %eax
	movl	%eax, 12(%esp)
	je	.L83
.LVL107:
	.loc 1 142 0
	movl	16(%esp), %eax
	cltd
	idivl	%ebx
	addl	$48, %eax
	movl	%edx, %ebp
	movw	%ax, 8(%ecx)
.LVL108:
	.loc 1 144 0
	movl	$1717986919, %eax
	imull	%ebx
	sarl	$31, %ebx
.LVL109:
	sarl	$2, %edx
	subl	%ebx, %edx
	.loc 1 141 0
	cmpl	$1, 12(%esp)
	.loc 1 144 0
	movl	%edx, %ebx
.LVL110:
	.loc 1 141 0
	jle	.L83
.LVL111:
	.loc 1 142 0
	movzwl	%bp, %eax
	cltd
.LVL112:
	idivl	%ebx
	addl	$48, %eax
	movl	%edx, %ebp
.LVL113:
	movw	%ax, 10(%ecx)
.LVL114:
	.loc 1 144 0
	movl	$1717986919, %eax
	imull	%ebx
	movl	%ebx, %eax
	sarl	$31, %eax
	sarl	$2, %edx
	movl	%edx, %ebx
.LVL115:
	subl	%eax, %ebx
.LVL116:
	.loc 1 141 0
	cmpl	$4, %esi
	jne	.L83
.LVL117:
	.loc 1 142 0
	movzwl	%bp, %eax
	cltd
	idivl	%ebx
	addl	$48, %eax
	movw	%ax, 12(%ecx)
.LVL118:
.L83:
	movl	%esi, %eax
	.loc 1 146 0
	movl	$59, %edx
.LBE35:
	.loc 1 100 0
	addl	$2, %edi
.LVL119:
	sarl	$31, %eax
	notl	%eax
	andl	%esi, %eax
	movl	20(%esp), %esi
	leal	2(%eax,%eax), %eax
	addl	8(%esp), %eax
.LBB36:
	.loc 1 146 0
	movw	%dx, (%eax)
	leal	2(%eax), %ecx
.LVL120:
.LBE36:
	.loc 1 100 0
	movl	44(%esp), %eax
	leal	(%esi,%eax,2), %edx
	.loc 1 99 0
	cmpl	%edx, %edi
	jnb	.L77
.L80:
.LBB37:
	.loc 1 105 0
	leal	4(%ecx), %esi
	.loc 1 104 0
	movl	$38, %ebx
	.loc 1 101 0
	movzwl	(%edi), %eax
.LVL121:
	.loc 1 104 0
	movw	%bx, (%ecx)
	.loc 1 105 0
	movl	%esi, 8(%esp)
.LVL122:
	movl	$35, %esi
.LVL123:
	movw	%si, 2(%ecx)
	.loc 1 106 0
	movzwl	(%edi), %edx
	cmpw	$9, %dx
	ja	.L102
.LVL124:
	.loc 1 142 0
	addl	$48, %eax
.LVL125:
	xorl	%esi, %esi
	movw	%ax, 4(%ecx)
.LVL126:
	jmp	.L83
.LVL127:
	.p2align 4,,10
	.p2align 3
.L72:
.LBE37:
	.loc 1 76 0
	cmpw	$999, %dx
	ja	.L73
	.loc 1 77 0
	addl	$6, %ecx
.LVL128:
	jmp	.L71
	.p2align 4,,10
	.p2align 3
.L73:
	.loc 1 78 0
	cmpw	$9999, %dx
	ja	.L74
	.loc 1 79 0
	addl	$7, %ecx
.LVL129:
	jmp	.L71
.LVL130:
	.p2align 4,,10
	.p2align 3
.L87:
.LBB38:
	movl	$1, %esi
	.loc 1 112 0
	movl	$10, %ebx
	jmp	.L79
	.p2align 4,,10
	.p2align 3
.L88:
	movl	$2, %esi
	.loc 1 116 0
	movl	$100, %ebx
	jmp	.L79
.LVL131:
	.p2align 4,,10
	.p2align 3
.L77:
.LBE38:
	.loc 1 148 0
	subl	$4, %esp
	.cfi_def_cfa_offset 84
	pushl	%eax
	.cfi_def_cfa_offset 88
	movl	32(%esp), %edi
.LVL132:
	pushl	%edi
	.cfi_def_cfa_offset 92
	pushl	$.LC3
	.cfi_def_cfa_offset 96
	call	Py_BuildValue
.LVL133:
	.loc 1 149 0
	movl	(%edi), %esi
	leal	-1(%esi), %edx
	movl	%esi, 24(%esp)
	addl	$16, %esp
	.cfi_def_cfa_offset 80
	testl	%edx, %edx
	movl	%edx, (%edi)
	je	.L103
.LVL134:
.L81:
	.loc 1 150 0
	movl	28(%esp), %edi
	movl	(%edi), %esi
	leal	-1(%esi), %edx
	movl	%esi, 8(%esp)
	testl	%edx, %edx
	movl	%edx, (%edi)
	jne	.L93
	movl	%eax, 8(%esp)
	.loc 1 150 0 is_stmt 0 discriminator 1
	subl	$12, %esp
	.cfi_def_cfa_offset 92
	movl	40(%esp), %eax
	movl	4(%eax), %edx
	pushl	%eax
	.cfi_def_cfa_offset 96
	call	*24(%edx)
.LVL135:
	addl	$16, %esp
	.cfi_def_cfa_offset 80
	movl	8(%esp), %eax
	jmp	.L93
.LVL136:
	.p2align 4,,10
	.p2align 3
.L65:
.LBE39:
.LBB40:
	.loc 1 154 0 is_stmt 1
	subl	$12, %esp
	.cfi_def_cfa_offset 92
	pushl	%ebx
	.cfi_def_cfa_offset 96
	call	wrong_exception_type
.LVL137:
	.loc 1 155 0
	addl	$16, %esp
	.cfi_def_cfa_offset 80
	xorl	%eax, %eax
.LBE40:
	.loc 1 157 0
	addl	$60, %esp
	.cfi_remember_state
	.cfi_def_cfa_offset 20
	popl	%ebx
	.cfi_restore 3
	.cfi_def_cfa_offset 16
	popl	%esi
	.cfi_restore 6
	.cfi_def_cfa_offset 12
	popl	%edi
	.cfi_restore 7
	.cfi_def_cfa_offset 8
	popl	%ebp
	.cfi_restore 5
	.cfi_def_cfa_offset 4
	ret
.LVL138:
	.p2align 4,,10
	.p2align 3
.L74:
	.cfi_restore_state
.LBB41:
	.loc 1 82 0
	addl	$8, %ecx
.LVL139:
	jmp	.L71
.LVL140:
	.p2align 4,,10
	.p2align 3
.L103:
	movl	%eax, 8(%esp)
	.loc 1 149 0 discriminator 1
	subl	$12, %esp
	.cfi_def_cfa_offset 92
	movl	36(%esp), %eax
.LVL141:
	movl	4(%eax), %edx
	pushl	%eax
	.cfi_def_cfa_offset 96
	call	*24(%edx)
.LVL142:
	addl	$16, %esp
	.cfi_def_cfa_offset 80
	movl	8(%esp), %eax
	jmp	.L81
.LVL143:
	.p2align 4,,10
	.p2align 3
.L101:
	.loc 1 95 0
	movl	28(%esp), %edi
.LVL144:
	movl	(%edi), %eax
.LVL145:
	movl	%eax, 8(%esp)
	subl	$1, %eax
	testl	%eax, %eax
	movl	%eax, (%edi)
	jne	.L98
	.loc 1 95 0 is_stmt 0 discriminator 1
	subl	$12, %esp
	.cfi_def_cfa_offset 92
	movl	40(%esp), %edi
	movl	4(%edi), %eax
	pushl	%edi
	.cfi_def_cfa_offset 96
	call	*24(%eax)
.LVL146:
	addl	$16, %esp
	.cfi_def_cfa_offset 80
	jmp	.L98
.LBE41:
	.cfi_endproc
.LFE72:
	.size	PyCodec_XMLCharRefReplaceErrors, .-PyCodec_XMLCharRefReplaceErrors
	.section	.text.unlikely
.LCOLDE10:
	.text
.LHOTE10:
	.section	.text.unlikely
.LCOLDB11:
	.text
.LHOTB11:
	.p2align 4,,15
	.type	xmlcharrefreplace_errors, @function
xmlcharrefreplace_errors:
.LFB77:
	.loc 1 257 0 is_stmt 1
	.cfi_startproc
.LVL147:
	.loc 1 258 0
	movl	8(%esp), %eax
	movl	%eax, 4(%esp)
.LVL148:
	jmp	PyCodec_XMLCharRefReplaceErrors
.LVL149:
	.cfi_endproc
.LFE77:
	.size	xmlcharrefreplace_errors, .-xmlcharrefreplace_errors
	.section	.text.unlikely
.LCOLDE11:
	.text
.LHOTE11:
	.section	.text.unlikely
.LCOLDB12:
	.text
.LHOTB12:
	.p2align 4,,15
	.globl	PyCodec_BackslashReplaceErrors
	.type	PyCodec_BackslashReplaceErrors, @function
PyCodec_BackslashReplaceErrors:
.LFB73:
	.loc 1 165 0
	.cfi_startproc
.LVL150:
	pushl	%ebp
	.cfi_def_cfa_offset 8
	.cfi_offset 5, -8
	pushl	%edi
	.cfi_def_cfa_offset 12
	.cfi_offset 7, -12
	pushl	%esi
	.cfi_def_cfa_offset 16
	.cfi_offset 6, -16
	pushl	%ebx
	.cfi_def_cfa_offset 20
	.cfi_offset 3, -20
	subl	$52, %esp
	.cfi_def_cfa_offset 72
	.loc 1 165 0
	movl	72(%esp), %ebx
	.loc 1 166 0
	pushl	PyExc_UnicodeEncodeError
	.cfi_def_cfa_offset 76
	pushl	%ebx
	.cfi_def_cfa_offset 80
	call	PyObject_IsInstance
.LVL151:
	addl	$16, %esp
	.cfi_def_cfa_offset 64
	testl	%eax, %eax
	je	.L106
.LBB42:
	.loc 1 176 0
	subl	$8, %esp
	.cfi_def_cfa_offset 72
	leal	32(%esp), %eax
	pushl	%eax
	.cfi_def_cfa_offset 76
	pushl	%ebx
	.cfi_def_cfa_offset 80
	call	PyUnicodeEncodeError_GetStart
.LVL152:
	addl	$16, %esp
	.cfi_def_cfa_offset 64
	testl	%eax, %eax
	je	.L132
.L131:
.LBE42:
.LBB47:
	.loc 1 232 0
	xorl	%eax, %eax
.L119:
.LBE47:
	.loc 1 234 0 discriminator 1
	addl	$44, %esp
	.cfi_remember_state
	.cfi_def_cfa_offset 20
	popl	%ebx
	.cfi_restore 3
	.cfi_def_cfa_offset 16
	popl	%esi
	.cfi_restore 6
	.cfi_def_cfa_offset 12
	popl	%edi
	.cfi_restore 7
	.cfi_def_cfa_offset 8
	popl	%ebp
	.cfi_restore 5
	.cfi_def_cfa_offset 4
	ret
	.p2align 4,,10
	.p2align 3
.L132:
	.cfi_restore_state
.LBB48:
	.loc 1 178 0
	subl	$8, %esp
	.cfi_def_cfa_offset 72
	leal	36(%esp), %eax
	pushl	%eax
	.cfi_def_cfa_offset 76
	pushl	%ebx
	.cfi_def_cfa_offset 80
	call	PyUnicodeEncodeError_GetEnd
.LVL153:
	addl	$16, %esp
	.cfi_def_cfa_offset 64
	testl	%eax, %eax
	jne	.L131
	.loc 1 180 0
	subl	$12, %esp
	.cfi_def_cfa_offset 76
	pushl	%ebx
	.cfi_def_cfa_offset 80
	call	PyUnicodeEncodeError_GetObject
.LVL154:
	movl	%eax, 24(%esp)
.LVL155:
	addl	$16, %esp
	.cfi_def_cfa_offset 64
	testl	%eax, %eax
	je	.L131
	.loc 1 182 0
	movl	12(%eax), %edi
.LVL156:
	.loc 1 183 0
	movl	24(%esp), %eax
.LVL157:
	leal	(%edi,%eax,2), %edx
.LVL158:
	movl	28(%esp), %eax
	leal	(%edi,%eax,2), %ebx
	xorl	%eax, %eax
	cmpl	%ebx, %edx
	jnb	.L110
.LVL159:
	.p2align 4,,10
	.p2align 3
.L113:
	.loc 1 190 0
	leal	6(%eax), %ecx
	addl	$4, %eax
	cmpw	$255, (%edx)
	jbe	.L112
	movl	%ecx, %eax
.L112:
	.loc 1 183 0
	addl	$2, %edx
.LVL160:
	cmpl	%ebx, %edx
	jb	.L113
.L110:
	.loc 1 195 0
	subl	$8, %esp
	.cfi_def_cfa_offset 72
	pushl	%eax
	.cfi_def_cfa_offset 76
	pushl	$0
	.cfi_def_cfa_offset 80
	call	PyUnicodeUCS2_FromUnicode
.LVL161:
	.loc 1 196 0
	addl	$16, %esp
	.cfi_def_cfa_offset 64
	testl	%eax, %eax
	.loc 1 195 0
	movl	%eax, %ebp
.LVL162:
	.loc 1 196 0
	je	.L131
	.loc 1 198 0
	movl	24(%esp), %eax
.LVL163:
	movl	12(%ebp), %ecx
	leal	(%edi,%eax,2), %ebx
.LVL164:
	.loc 1 199 0
	movl	28(%esp), %eax
	leal	(%edi,%eax,2), %edx
	.loc 1 198 0
	cmpl	%edx, %ebx
	jb	.L117
	jmp	.L114
.LVL165:
	.p2align 4,,10
	.p2align 3
.L133:
.LBB43:
	.loc 1 216 0
	movl	%eax, %edx
	.loc 1 217 0
	movl	%eax, %esi
	.loc 1 216 0
	shrw	$12, %dx
	.loc 1 217 0
	shrw	$8, %si
	.loc 1 216 0
	movzwl	%dx, %edx
	.loc 1 217 0
	andl	$15, %esi
	.loc 1 216 0
	movzwl	hexdigits(%edx,%edx), %edx
	.loc 1 217 0
	movzwl	hexdigits(%esi,%esi), %esi
	.loc 1 216 0
	movw	%dx, 4(%ecx)
	.loc 1 217 0
	leal	8(%ecx), %edx
.LVL166:
	movw	%si, 6(%ecx)
	.loc 1 215 0
	movl	$117, %esi
.L116:
	movw	%si, 2(%ecx)
.LVL167:
	.loc 1 221 0 discriminator 1
	movl	%eax, %ecx
	.loc 1 222 0 discriminator 1
	andl	$15, %eax
.LVL168:
	.loc 1 221 0 discriminator 1
	shrw	$4, %cx
.LVL169:
	.loc 1 222 0 discriminator 1
	movzwl	hexdigits(%eax,%eax), %eax
.LBE43:
	.loc 1 199 0 discriminator 1
	addl	$2, %ebx
.LVL170:
.LBB44:
	.loc 1 221 0 discriminator 1
	andl	$15, %ecx
	movzwl	hexdigits(%ecx,%ecx), %ecx
	.loc 1 222 0 discriminator 1
	movw	%ax, 2(%edx)
	.loc 1 221 0 discriminator 1
	movw	%cx, (%edx)
.LBE44:
	.loc 1 199 0 discriminator 1
	movl	28(%esp), %eax
.LBB45:
	.loc 1 222 0 discriminator 1
	leal	4(%edx), %ecx
.LVL171:
.LBE45:
	.loc 1 199 0 discriminator 1
	leal	(%edi,%eax,2), %edx
	.loc 1 198 0 discriminator 1
	cmpl	%edx, %ebx
	jnb	.L114
.L117:
.LBB46:
	.loc 1 200 0
	movzwl	(%ebx), %eax
.LVL172:
	.loc 1 201 0
	movl	$92, %edx
	movw	%dx, (%ecx)
	.loc 1 214 0
	cmpw	$255, %ax
	ja	.L133
	.loc 1 220 0
	leal	4(%ecx), %edx
.LVL173:
	movl	$120, %esi
	jmp	.L116
.LVL174:
	.p2align 4,,10
	.p2align 3
.L114:
.LBE46:
	.loc 1 225 0
	subl	$4, %esp
	.cfi_def_cfa_offset 68
	pushl	%eax
	.cfi_def_cfa_offset 72
	pushl	%ebp
	.cfi_def_cfa_offset 76
	pushl	$.LC3
	.cfi_def_cfa_offset 80
	call	Py_BuildValue
.LVL175:
	.loc 1 226 0
	movl	0(%ebp), %edi
.LVL176:
	addl	$16, %esp
	.cfi_def_cfa_offset 64
	leal	-1(%edi), %edx
	testl	%edx, %edx
	movl	%edx, 0(%ebp)
	je	.L134
.LVL177:
.L118:
	.loc 1 227 0
	movl	8(%esp), %edi
	movl	(%edi), %esi
	leal	-1(%esi), %edx
	movl	%esi, 12(%esp)
	testl	%edx, %edx
	movl	%edx, (%edi)
	jne	.L119
	movl	%eax, 12(%esp)
	.loc 1 227 0 is_stmt 0 discriminator 1
	subl	$12, %esp
	.cfi_def_cfa_offset 76
	movl	20(%esp), %eax
	movl	4(%eax), %edx
	pushl	%eax
	.cfi_def_cfa_offset 80
	call	*24(%edx)
.LVL178:
	addl	$16, %esp
	.cfi_def_cfa_offset 64
	movl	12(%esp), %eax
	jmp	.L119
.LVL179:
	.p2align 4,,10
	.p2align 3
.L106:
.LBE48:
.LBB49:
	.loc 1 231 0 is_stmt 1
	subl	$12, %esp
	.cfi_def_cfa_offset 76
	pushl	%ebx
	.cfi_def_cfa_offset 80
	call	wrong_exception_type
.LVL180:
	.loc 1 232 0
	addl	$16, %esp
	.cfi_def_cfa_offset 64
	jmp	.L131
.LVL181:
	.p2align 4,,10
	.p2align 3
.L134:
	movl	%eax, 12(%esp)
.LBE49:
.LBB50:
	.loc 1 226 0 discriminator 1
	movl	4(%ebp), %edx
	subl	$12, %esp
	.cfi_def_cfa_offset 76
	pushl	%ebp
	.cfi_def_cfa_offset 80
	call	*24(%edx)
.LVL182:
	addl	$16, %esp
	.cfi_def_cfa_offset 64
	movl	12(%esp), %eax
	jmp	.L118
.LBE50:
	.cfi_endproc
.LFE73:
	.size	PyCodec_BackslashReplaceErrors, .-PyCodec_BackslashReplaceErrors
	.section	.text.unlikely
.LCOLDE12:
	.text
.LHOTE12:
	.section	.rodata.str1.1
.LC13:
	.string	"strict"
.LC14:
	.string	"strict_errors"
.LC15:
	.string	"ignore"
.LC16:
	.string	"ignore_errors"
.LC17:
	.string	"replace"
.LC18:
	.string	"replace_errors"
.LC19:
	.string	"xmlcharrefreplace"
.LC20:
	.string	"xmlcharrefreplace_errors"
.LC21:
	.string	"backslashreplace"
.LC22:
	.string	"backslashreplace_errors"
	.data
	.align 64
	.type	methods.8510, @object
	.size	methods.8510, 100
methods.8510:
	.long	.LC13
	.long	.LC14
	.long	strict_errors
	.long	8
	.zero	4
	.long	.LC15
	.long	.LC16
	.long	ignore_errors
	.long	8
	.zero	4
	.long	.LC17
	.long	.LC18
	.long	replace_errors
	.long	8
	.zero	4
	.long	.LC19
	.long	.LC20
	.long	xmlcharrefreplace_errors
	.long	8
	.zero	4
	.long	.LC21
	.long	.LC22
	.long	backslashreplace_errors
	.long	8
	.zero	4
	.section	.rodata
	.align 32
	.type	hexdigits, @object
	.size	hexdigits, 32
hexdigits:
	.value	48
	.value	49
	.value	50
	.value	51
	.value	52
	.value	53
	.value	54
	.value	55
	.value	56
	.value	57
	.value	97
	.value	98
	.value	99
	.value	100
	.value	101
	.value	102
	.text
.Letext0:
	.section	.text.unlikely
.Letext_cold0:
	.file 2 "/usr/lib/gcc/x86_64-linux-gnu/4.9/include/stddef.h"
	.file 3 "/usr/include/bits/types.h"
	.file 4 "/usr/include/stdio.h"
	.file 5 "/usr/include/libio.h"
	.file 6 "./Include/object.h"
	.file 7 "./Include/methodobject.h"
	.file 8 "./Include/descrobject.h"
	.file 9 "./Include/unicodeobject.h"
	.file 10 "./Include/pystate.h"
	.file 11 "./Include/pyerrors.h"
	.file 12 "./Include/codecs.h"
	.file 13 "./Include/modsupport.h"
	.file 14 "./Include/abstract.h"
	.file 15 "./Include/pydebug.h"
	.file 16 "./Include/listobject.h"
	.file 17 "./Include/import.h"
	.file 18 "./Include/dictobject.h"
	.section	.note.GNU-stack,"",@progbits
