	.file	"infback.c"
	.text
	.p2align 4,,15
	.globl	inflateBackInit_
	.type	inflateBackInit_, @function
inflateBackInit_:
.LFB45:
	.cfi_startproc
	subl	$44, %esp
	.cfi_def_cfa_offset 48
	movl	60(%esp), %eax
	movl	%ebx, 28(%esp)
	.cfi_offset 3, -20
	call	__i686.get_pc_thunk.bx
	addl	$_GLOBAL_OFFSET_TABLE_, %ebx
	movl	%esi, 32(%esp)
	movl	56(%esp), %esi
	.cfi_offset 6, -16
	testl	%eax, %eax
	movl	%edi, 36(%esp)
	movl	48(%esp), %edi
	.cfi_offset 7, -12
	movl	%ebp, 40(%esp)
	movl	52(%esp), %ebp
	.cfi_offset 5, -8
	je	.L6
	cmpl	$56, 64(%esp)
	jne	.L6
	cmpb	$49, (%eax)
	jne	.L6
	testl	%esi, %esi
	je	.L8
	testl	%edi, %edi
	.p2align 4,,4
	je	.L8
	cmpl	$15, %ebp
	.p2align 4,,4
	jg	.L8
	cmpl	$7, %ebp
	.p2align 4,,3
	jle	.L8
	movl	32(%edi), %edx
	movl	$0, 24(%edi)
	testl	%edx, %edx
	je	.L11
	movl	36(%edi), %eax
	testl	%eax, %eax
	je	.L12
.L4:
	movl	$7116, 8(%esp)
	movl	$1, 4(%esp)
	movl	40(%edi), %eax
	movl	%eax, (%esp)
	call	*32(%edi)
	testl	%eax, %eax
	je	.L9
	movl	$1, %edx
	movl	%ebp, %ecx
	sall	%cl, %edx
	movl	%eax, 28(%edi)
	movl	$32768, 20(%eax)
	movl	%ebp, 36(%eax)
	movl	%edx, 40(%eax)
	movl	%esi, 52(%eax)
	movl	$0, 48(%eax)
	movl	$0, 44(%eax)
	xorl	%eax, %eax
.L2:
	movl	28(%esp), %ebx
	movl	32(%esp), %esi
	movl	36(%esp), %edi
	movl	40(%esp), %ebp
	addl	$44, %esp
	.cfi_remember_state
	.cfi_def_cfa_offset 4
	.cfi_restore 5
	.cfi_restore 7
	.cfi_restore 6
	.cfi_restore 3
	ret
	.p2align 4,,7
	.p2align 3
.L11:
	.cfi_restore_state
	leal	zcalloc@GOTOFF(%ebx), %eax
	movl	%eax, 32(%edi)
	movl	36(%edi), %eax
	movl	$0, 40(%edi)
	testl	%eax, %eax
	jne	.L4
	.p2align 4,,7
	.p2align 3
.L12:
	leal	zcfree@GOTOFF(%ebx), %eax
	movl	%eax, 36(%edi)
	jmp	.L4
	.p2align 4,,7
	.p2align 3
.L8:
	movl	$-2, %eax
	jmp	.L2
	.p2align 4,,7
	.p2align 3
.L6:
	movl	$-6, %eax
	jmp	.L2
.L9:
	movl	$-4, %eax
	jmp	.L2
	.cfi_endproc
.LFE45:
	.size	inflateBackInit_, .-inflateBackInit_
	.section	.rodata.str1.1,"aMS",@progbits,1
.LC0:
	.string	"invalid block type"
.LC1:
	.string	"invalid stored block lengths"
	.section	.rodata.str1.4,"aMS",@progbits,1
	.align 4
.LC2:
	.string	"too many length or distance symbols"
	.section	.rodata.str1.1
.LC3:
	.string	"invalid code lengths set"
.LC4:
	.string	"invalid bit length repeat"
	.section	.rodata.str1.4
	.align 4
.LC5:
	.string	"invalid code -- missing end-of-block"
	.section	.rodata.str1.1
.LC6:
	.string	"invalid literal/lengths set"
.LC7:
	.string	"invalid distances set"
.LC8:
	.string	"invalid literal/length code"
.LC9:
	.string	"invalid distance code"
.LC10:
	.string	"invalid distance too far back"
	.text
	.p2align 4,,15
	.globl	inflateBack
	.type	inflateBack, @function
inflateBack:
.LFB47:
	.cfi_startproc
	pushl	%ebp
	.cfi_def_cfa_offset 8
	.cfi_offset 5, -8
	pushl	%edi
	.cfi_def_cfa_offset 12
	.cfi_offset 7, -12
	pushl	%esi
	.cfi_def_cfa_offset 16
	.cfi_offset 6, -16
	pushl	%ebx
	.cfi_def_cfa_offset 20
	.cfi_offset 3, -20
	subl	$188, %esp
	.cfi_def_cfa_offset 208
	movl	208(%esp), %eax
	call	__i686.get_pc_thunk.bx
	addl	$_GLOBAL_OFFSET_TABLE_, %ebx
	testl	%eax, %eax
	je	.L143
	movl	208(%esp), %edx
	movl	28(%edx), %edx
	testl	%edx, %edx
	movl	%edx, 56(%esp)
	je	.L143
	movl	208(%esp), %edi
	movl	(%edi), %eax
	movl	$0, 24(%edi)
	xorl	%edi, %edi
	movl	$11, (%edx)
	movl	$0, 4(%edx)
	testl	%eax, %eax
	movl	$0, 44(%edx)
	movl	%eax, 172(%esp)
	je	.L15
	movl	208(%esp), %ebp
	movl	4(%ebp), %edi
.L15:
	movl	56(%esp), %edx
	movl	$11, %eax
	xorl	%esi, %esi
	xorl	%ebp, %ebp
	movl	52(%edx), %edx
	movl	%edx, 80(%esp)
	movl	56(%esp), %edx
	movl	40(%edx), %edx
	movl	%edx, 88(%esp)
	leal	.LC10@GOTOFF(%ebx), %edx
	movl	%edx, 92(%esp)
.L203:
	subl	$11, %eax
	cmpl	$18, %eax
	jbe	.L217
.L17:
	movl	172(%esp), %edx
	movl	$-2, %eax
.L25:
	movl	208(%esp), %ebp
	movl	%edx, 0(%ebp)
	movl	%edi, 4(%ebp)
.L14:
	addl	$188, %esp
	.cfi_remember_state
	.cfi_def_cfa_offset 20
	popl	%ebx
	.cfi_def_cfa_offset 16
	.cfi_restore 3
	popl	%esi
	.cfi_def_cfa_offset 12
	.cfi_restore 6
	popl	%edi
	.cfi_def_cfa_offset 8
	.cfi_restore 7
	popl	%ebp
	.cfi_def_cfa_offset 4
	.cfi_restore 5
	ret
	.p2align 4,,7
	.p2align 3
.L217:
	.cfi_restore_state
	movl	%ebx, %ecx
	subl	.L24@GOTOFF(%ebx,%eax,4), %ecx
	jmp	*%ecx
	.p2align 2
	.align 4
.L24:
	.long	_GLOBAL_OFFSET_TABLE_+[.-.L18]
	.long	_GLOBAL_OFFSET_TABLE_+[.-.L17]
	.long	_GLOBAL_OFFSET_TABLE_+[.-.L19]
	.long	_GLOBAL_OFFSET_TABLE_+[.-.L17]
	.long	_GLOBAL_OFFSET_TABLE_+[.-.L17]
	.long	_GLOBAL_OFFSET_TABLE_+[.-.L20]
	.long	_GLOBAL_OFFSET_TABLE_+[.-.L17]
	.long	_GLOBAL_OFFSET_TABLE_+[.-.L17]
	.long	_GLOBAL_OFFSET_TABLE_+[.-.L17]
	.long	_GLOBAL_OFFSET_TABLE_+[.-.L21]
	.long	_GLOBAL_OFFSET_TABLE_+[.-.L17]
	.long	_GLOBAL_OFFSET_TABLE_+[.-.L17]
	.long	_GLOBAL_OFFSET_TABLE_+[.-.L17]
	.long	_GLOBAL_OFFSET_TABLE_+[.-.L17]
	.long	_GLOBAL_OFFSET_TABLE_+[.-.L17]
	.long	_GLOBAL_OFFSET_TABLE_+[.-.L17]
	.long	_GLOBAL_OFFSET_TABLE_+[.-.L17]
	.long	_GLOBAL_OFFSET_TABLE_+[.-.L22]
	.long	_GLOBAL_OFFSET_TABLE_+[.-.L23]
	.p2align 4,,7
	.p2align 3
.L23:
	movl	172(%esp), %edx
	movl	$-3, %eax
	jmp	.L25
	.p2align 4,,7
	.p2align 3
.L22:
	movl	56(%esp), %edx
	movl	40(%edx), %eax
	cmpl	88(%esp), %eax
	ja	.L138
	movl	172(%esp), %edx
	movl	$1, %eax
	jmp	.L25
.L91:
	movl	56(%esp), %edx
	movl	$20, (%edx)
	.p2align 4,,7
	.p2align 3
.L21:
	cmpl	$5, %edi
	jbe	.L166
	cmpl	$257, 88(%esp)
	ja	.L92
.L166:
	movl	56(%esp), %edx
	movl	$1, %eax
	movl	76(%edx), %edx
	movl	%edx, 60(%esp)
	movl	56(%esp), %edx
	movl	84(%edx), %edx
	movl	%edx, %ecx
	sall	%cl, %eax
	movl	60(%esp), %ecx
	subl	$1, %eax
	andl	%ebp, %eax
	movl	%edx, 64(%esp)
	leal	(%ecx,%eax,4), %edx
	movzbl	(%edx), %eax
	movb	%al, 84(%esp)
	movzbl	1(%edx), %eax
	movzwl	2(%edx), %edx
	movzbl	%al, %ecx
	cmpl	%ecx, %esi
	movl	%ecx, 108(%esp)
	jae	.L94
	movl	%edi, %eax
	jmp	.L176
	.p2align 4,,7
	.p2align 3
.L97:
	movl	172(%esp), %edi
	movl	%esi, %ecx
	addl	$8, %esi
	subl	$1, %eax
	movzbl	(%edi), %edx
	addl	$1, %edi
	movl	%edi, 172(%esp)
	movl	60(%esp), %edi
	sall	%cl, %edx
	movzbl	64(%esp), %ecx
	addl	%edx, %ebp
	movl	$1, %edx
	sall	%cl, %edx
	subl	$1, %edx
	andl	%ebp, %edx
	leal	(%edi,%edx,4), %ecx
	movzbl	(%ecx), %edx
	movzwl	2(%ecx), %edi
	movb	%dl, 84(%esp)
	movzbl	1(%ecx), %edx
	movzbl	%dl, %ecx
	cmpl	%esi, %ecx
	jbe	.L218
.L176:
	testl	%eax, %eax
	jne	.L97
	movl	216(%esp), %edi
	leal	172(%esp), %ecx
	movl	%ecx, 4(%esp)
	movl	%edi, (%esp)
	call	*212(%esp)
	testl	%eax, %eax
	je	.L162
	movl	56(%esp), %edx
	movl	56(%esp), %edi
	movl	76(%edx), %edx
	movl	84(%edi), %edi
	movl	%edx, 60(%esp)
	movl	%edi, 64(%esp)
	jmp	.L97
	.p2align 4,,7
	.p2align 3
.L20:
	cmpl	$13, %esi
	movl	%edi, %eax
	jbe	.L182
	jmp	.L27
	.p2align 4,,7
	.p2align 3
.L47:
	movl	172(%esp), %edi
	movl	%esi, %ecx
	addl	$8, %esi
	subl	$1, %eax
	movzbl	(%edi), %edx
	addl	$1, %edi
	movl	%edi, 172(%esp)
	sall	%cl, %edx
	addl	%edx, %ebp
	cmpl	$13, %esi
	ja	.L219
.L182:
	testl	%eax, %eax
	jne	.L47
	movl	216(%esp), %edi
	leal	172(%esp), %ecx
	movl	%ecx, 4(%esp)
	movl	%edi, (%esp)
	call	*212(%esp)
	testl	%eax, %eax
	jne	.L47
.L162:
	movl	%eax, %edi
	xorl	%edx, %edx
	movl	$-5, %eax
	jmp	.L25
	.p2align 4,,7
	.p2align 3
.L19:
	movl	%esi, %ecx
	andl	$-8, %esi
	andl	$7, %ecx
	shrl	%cl, %ebp
	cmpl	$31, %esi
	ja	.L39
	movl	%edi, %eax
	jmp	.L169
	.p2align 4,,7
	.p2align 3
.L40:
	movl	172(%esp), %edi
	movl	%esi, %ecx
	addl	$8, %esi
	subl	$1, %eax
	movzbl	(%edi), %edx
	addl	$1, %edi
	movl	%edi, 172(%esp)
	sall	%cl, %edx
	addl	%edx, %ebp
	cmpl	$31, %esi
	ja	.L220
.L169:
	testl	%eax, %eax
	jne	.L40
	movl	216(%esp), %edi
	leal	172(%esp), %ecx
	movl	%ecx, 4(%esp)
	movl	%edi, (%esp)
	call	*212(%esp)
	testl	%eax, %eax
	jne	.L40
	jmp	.L162
	.p2align 4,,7
	.p2align 3
.L18:
	movl	56(%esp), %edx
	movl	4(%edx), %eax
	testl	%eax, %eax
	jne	.L28
	cmpl	$2, %esi
	movl	%edi, %eax
	jbe	.L167
	jmp	.L30
	.p2align 4,,7
	.p2align 3
.L32:
	movl	172(%esp), %edi
	movl	%esi, %ecx
	addl	$8, %esi
	subl	$1, %eax
	movzbl	(%edi), %edx
	addl	$1, %edi
	movl	%edi, 172(%esp)
	sall	%cl, %edx
	addl	%edx, %ebp
	cmpl	$2, %esi
	ja	.L221
.L167:
	testl	%eax, %eax
	jne	.L32
	movl	216(%esp), %edi
	leal	172(%esp), %ecx
	movl	%ecx, 4(%esp)
	movl	%edi, (%esp)
	call	*212(%esp)
	testl	%eax, %eax
	jne	.L32
	jmp	.L162
	.p2align 4,,7
	.p2align 3
.L28:
	movl	%esi, %ecx
	movl	$28, %eax
	andl	$7, %ecx
	andl	$-8, %esi
	shrl	%cl, %ebp
	movl	$28, (%edx)
	jmp	.L203
	.p2align 4,,7
	.p2align 3
.L138:
	subl	88(%esp), %eax
	movl	224(%esp), %ebp
	movl	%eax, 8(%esp)
	movl	52(%edx), %eax
	movl	%ebp, (%esp)
	movl	%eax, 4(%esp)
	call	*220(%esp)
	movl	172(%esp), %edx
	testl	%eax, %eax
	je	.L222
.L214:
	movl	$-5, %eax
	jmp	.L25
	.p2align 4,,7
	.p2align 3
.L220:
	movl	%eax, %edi
.L39:
	movl	%ebp, %eax
	movl	%ebp, %edx
	shrl	$16, %eax
	andl	$65535, %edx
	xorl	$65535, %eax
	cmpl	%eax, %edx
	je	.L42
	leal	.LC1@GOTOFF(%ebx), %eax
.L213:
	movl	208(%esp), %edx
	movl	%eax, 24(%edx)
	movl	56(%esp), %edx
	movl	$29, %eax
	movl	$29, (%edx)
	jmp	.L203
	.p2align 4,,7
	.p2align 3
.L219:
	movl	%eax, %edi
.L27:
	movl	56(%esp), %edx
	movl	%ebp, %ecx
	movl	%ebp, %eax
	shrl	$5, %ecx
	andl	$31, %eax
	andl	$31, %ecx
	addl	$257, %eax
	addl	$1, %ecx
	subl	$14, %esi
	movl	%ecx, 100(%edx)
	movl	%eax, 96(%edx)
	movl	%ebp, %edx
	movl	%ecx, 60(%esp)
	movl	56(%esp), %ecx
	shrl	$10, %edx
	andl	$15, %edx
	addl	$4, %edx
	shrl	$14, %ebp
	cmpl	$286, %eax
	movl	%edx, 84(%esp)
	movl	%edx, 92(%ecx)
	ja	.L49
	cmpl	$30, 60(%esp)
	ja	.L49
	movl	56(%esp), %edx
	xorl	%eax, %eax
	movl	%eax, %ecx
	movl	%edi, %eax
	movl	%ebp, 60(%esp)
	movl	$0, 104(%edx)
	movl	%edx, %edi
	movl	84(%esp), %edx
	movl	%edx, 96(%esp)
.L51:
	cmpl	$2, %esi
	ja	.L55
	testl	%eax, %eax
	je	.L223
	.p2align 4,,7
	.p2align 3
.L52:
	movl	172(%esp), %ebp
	movl	%esi, %ecx
	subl	$1, %eax
	addl	$8, %esi
	movzbl	0(%ebp), %edx
	addl	$1, %ebp
	movl	%ebp, 172(%esp)
	sall	%cl, %edx
	movl	104(%edi), %ecx
	addl	%edx, 60(%esp)
	movl	92(%edi), %edx
	movl	%edx, 96(%esp)
.L55:
	movzwl	60(%esp), %edx
	subl	$3, %esi
	movzwl	order.3554@GOTOFF(%ebx,%ecx,2), %ebp
	addl	$1, %ecx
	shrl	$3, 60(%esp)
	andl	$7, %edx
	cmpl	96(%esp), %ecx
	movw	%dx, 112(%edi,%ebp,2)
	movl	%ecx, 104(%edi)
	jb	.L51
	cmpl	$18, %ecx
	movl	%eax, %edi
	movl	60(%esp), %ebp
	movl	%ecx, %eax
	ja	.L56
	movl	56(%esp), %ecx
	.p2align 4,,7
	.p2align 3
.L181:
	movzwl	order.3554@GOTOFF(%ebx,%eax,2), %edx
	addl	$1, %eax
	cmpl	$18, %eax
	movw	$0, 112(%ecx,%edx,2)
	jbe	.L181
	movl	56(%esp), %edx
	movl	%eax, 104(%edx)
.L56:
	movl	56(%esp), %edx
	movl	56(%esp), %ecx
	addl	$1328, %edx
	movl	%edx, 108(%ecx)
	movl	%edx, 76(%ecx)
	movl	%edx, 96(%esp)
	movl	56(%esp), %edx
	movl	$7, 84(%ecx)
	addl	$752, %ecx
	movl	%ecx, 112(%esp)
	movl	%ecx, 20(%esp)
	addl	$84, %edx
	movl	%edx, 148(%esp)
	movl	56(%esp), %edx
	movl	$19, 8(%esp)
	movl	$0, (%esp)
	addl	$108, %edx
	movl	%edx, 116(%esp)
	movl	56(%esp), %edx
	addl	$112, %edx
	movl	%edx, 152(%esp)
	movl	148(%esp), %edx
	movl	%edx, 16(%esp)
	movl	116(%esp), %edx
	movl	%edx, 12(%esp)
	movl	152(%esp), %edx
	movl	%edx, 4(%esp)
	call	inflate_table
	testl	%eax, %eax
	je	.L58
	leal	.LC3@GOTOFF(%ebx), %eax
	jmp	.L213
	.p2align 4,,7
	.p2align 3
.L49:
	leal	.LC2@GOTOFF(%ebx), %eax
	jmp	.L213
	.p2align 4,,7
	.p2align 3
.L92:
	movl	208(%esp), %edx
	movl	88(%esp), %eax
	movl	80(%esp), %ecx
	movl	%edi, 4(%edx)
	movl	%eax, 16(%edx)
	movl	172(%esp), %eax
	movl	%ecx, 12(%edx)
	movl	%eax, (%edx)
	movl	56(%esp), %edx
	movl	40(%edx), %eax
	cmpl	%eax, 44(%edx)
	movl	%ebp, 56(%edx)
	movl	%esi, 60(%edx)
	jae	.L96
	movl	%edx, %edi
	movl	%eax, %edx
	subl	88(%esp), %edx
	movl	%edx, 44(%edi)
.L96:
	movl	208(%esp), %ebp
	movl	%eax, 4(%esp)
	movl	%ebp, (%esp)
	call	inflate_fast
	movl	12(%ebp), %edx
	movl	16(%ebp), %edi
	movl	0(%ebp), %eax
	movl	%edx, 80(%esp)
	movl	56(%esp), %edx
	movl	%edi, 88(%esp)
	movl	4(%ebp), %edi
	movl	%eax, 172(%esp)
	movl	56(%edx), %ebp
	movl	60(%edx), %esi
	movl	(%edx), %eax
	jmp	.L203
	.p2align 4,,7
	.p2align 3
.L218:
	movl	%ecx, 108(%esp)
	movl	%edi, %ecx
	movl	%eax, %edi
	movl	%edx, %eax
	movl	%ecx, %edx
.L94:
	cmpb	$0, 84(%esp)
	je	.L99
	movzbl	84(%esp), %ecx
	movl	%ecx, 96(%esp)
	andl	$240, %ecx
	jne	.L100
	movzbl	%al, %ecx
	movzwl	%dx, %edx
	movl	%ecx, 64(%esp)
	movl	96(%esp), %ecx
	addl	64(%esp), %ecx
	movl	%edx, 100(%esp)
	movl	$1, %edx
	sall	%cl, %edx
	movl	%eax, %ecx
	movl	100(%esp), %eax
	subl	$1, %edx
	movl	%edx, 96(%esp)
	andl	%ebp, %edx
	shrl	%cl, %edx
	addl	%edx, %eax
	movl	60(%esp), %edx
	leal	(%edx,%eax,4), %eax
	movzbl	(%eax), %edx
	movb	%dl, 84(%esp)
	movzbl	1(%eax), %edx
	movzwl	2(%eax), %eax
	movb	%dl, 112(%esp)
	movw	%ax, 104(%esp)
	movzbl	%dl, %eax
	movl	64(%esp), %edx
	addl	%eax, %edx
	cmpl	%edx, %esi
	jae	.L101
	movl	%edi, %eax
	jmp	.L175
	.p2align 4,,7
	.p2align 3
.L102:
	movl	172(%esp), %edi
	movl	%esi, %ecx
	addl	$8, %esi
	subl	$1, %eax
	movzbl	(%edi), %edx
	addl	$1, %edi
	movl	%edi, 172(%esp)
	movl	60(%esp), %edi
	sall	%cl, %edx
	movzbl	64(%esp), %ecx
	addl	%edx, %ebp
	movl	96(%esp), %edx
	andl	%ebp, %edx
	shrl	%cl, %edx
	addl	100(%esp), %edx
	leal	(%edi,%edx,4), %edx
	movl	64(%esp), %edi
	movzbl	(%edx), %ecx
	movb	%cl, 84(%esp)
	movzbl	1(%edx), %ecx
	movzwl	2(%edx), %edx
	movw	%dx, 104(%esp)
	movzbl	%cl, %edx
	addl	%edx, %edi
	cmpl	%esi, %edi
	jbe	.L224
.L175:
	testl	%eax, %eax
	jne	.L102
	movl	216(%esp), %edi
	leal	172(%esp), %ecx
	movl	%ecx, 4(%esp)
	movl	%edi, (%esp)
	call	*212(%esp)
	testl	%eax, %eax
	je	.L162
	movl	56(%esp), %edx
	movl	76(%edx), %edx
	movl	%edx, 60(%esp)
	jmp	.L102
	.p2align 4,,7
	.p2align 3
.L221:
	movl	%eax, %edi
.L30:
	movl	56(%esp), %edx
	movl	%ebp, %eax
	andl	$1, %eax
	shrl	%ebp
	movl	%eax, 4(%edx)
	movl	%ebp, %eax
	andl	$3, %eax
	cmpl	$2, %eax
	je	.L36
	cmpl	$3, %eax
	je	.L37
	cmpl	$1, %eax
	je	.L35
	movl	$13, (%edx)
	movl	$13, %eax
.L38:
	shrl	$2, %ebp
	subl	$3, %esi
	jmp	.L203
	.p2align 4,,7
	.p2align 3
.L42:
	movl	56(%esp), %ecx
	testl	%edx, %edx
	movl	%edx, 64(%ecx)
	je	.L43
	movl	%edx, %esi
	movl	88(%esp), %ecx
	movl	%edi, %edx
	leal	172(%esp), %ebp
	jmp	.L168
	.p2align 4,,7
	.p2align 3
.L44:
	testl	%ecx, %ecx
	je	.L225
.L45:
	movl	172(%esp), %eax
	cmpl	%esi, %edx
	movl	%ecx, %edi
	cmovbe	%edx, %esi
	cmpl	%ecx, %esi
	cmovbe	%esi, %edi
	movl	%eax, 4(%esp)
	movl	80(%esp), %eax
	movl	%edx, 52(%esp)
	movl	%ecx, 48(%esp)
	movl	%edi, 8(%esp)
	movl	%eax, (%esp)
	call	memcpy@PLT
	movl	56(%esp), %eax
	movl	52(%esp), %edx
	movl	48(%esp), %ecx
	addl	%edi, 172(%esp)
	movl	64(%eax), %esi
	subl	%edi, %edx
	subl	%edi, %ecx
	addl	%edi, 80(%esp)
	subl	%edi, %esi
	testl	%esi, %esi
	movl	%esi, 64(%eax)
	je	.L226
.L168:
	testl	%edx, %edx
	jne	.L44
	movl	216(%esp), %edi
	movl	%ecx, 48(%esp)
	movl	%ebp, 4(%esp)
	movl	%edi, (%esp)
	call	*212(%esp)
	movl	48(%esp), %ecx
	testl	%eax, %eax
	movl	%eax, %edx
	jne	.L44
	movl	%eax, %edi
	xorl	%edx, %edx
	movl	$-5, %eax
	jmp	.L25
	.p2align 4,,7
	.p2align 3
.L225:
	movl	56(%esp), %edi
	movl	52(%edi), %edi
	movl	%edi, 80(%esp)
	movl	56(%esp), %edi
	movl	40(%edi), %ecx
	movl	%ecx, 44(%edi)
	movl	80(%esp), %edi
	movl	%ecx, 8(%esp)
	movl	%edx, 52(%esp)
	movl	%ecx, 48(%esp)
	movl	%edi, 4(%esp)
	movl	224(%esp), %edi
	movl	%edi, (%esp)
	call	*220(%esp)
	movl	52(%esp), %edx
	movl	48(%esp), %ecx
	testl	%eax, %eax
	je	.L45
	movl	%edx, %edi
	movl	$-5, %eax
	movl	172(%esp), %edx
	jmp	.L25
	.p2align 4,,7
	.p2align 3
.L99:
	movl	%eax, %ecx
	movl	56(%esp), %eax
	movzwl	%dx, %edx
	subl	108(%esp), %esi
	shrl	%cl, %ebp
	movl	%edx, 64(%eax)
.L140:
	movl	88(%esp), %eax
	testl	%eax, %eax
	je	.L227
.L105:
	movl	80(%esp), %eax
	subl	$1, 88(%esp)
	movb	%dl, (%eax)
	movl	56(%esp), %edx
	addl	$1, %eax
	movl	%eax, 80(%esp)
	movl	$20, %eax
	movl	$20, (%edx)
	jmp	.L203
.L222:
	movb	$1, %al
	jmp	.L25
.L37:
	movl	208(%esp), %edx
	leal	.LC0@GOTOFF(%ebx), %eax
	movl	%eax, 24(%edx)
	movl	56(%esp), %edx
	movl	$29, %eax
	movl	$29, (%edx)
	jmp	.L38
	.p2align 4,,7
	.p2align 3
.L223:
	movl	216(%esp), %ebp
	leal	172(%esp), %ecx
	movl	%ecx, 4(%esp)
	movl	%ebp, (%esp)
	call	*212(%esp)
	testl	%eax, %eax
	jne	.L52
	jmp	.L162
.L226:
	movl	%edx, %edi
	movl	%ecx, 88(%esp)
.L43:
	movl	56(%esp), %edx
	movl	$11, %eax
	xorl	%esi, %esi
	xorl	%ebp, %ebp
	movl	$11, (%edx)
	jmp	.L203
.L100:
	movl	%eax, %ecx
	movl	56(%esp), %eax
	movzwl	%dx, %edx
	subl	108(%esp), %esi
	shrl	%cl, %ebp
	movl	%edx, 64(%eax)
.L141:
	testb	$32, 96(%esp)
	je	.L107
	movl	56(%esp), %edx
	movl	$11, %eax
	movl	$11, (%edx)
	jmp	.L203
.L107:
	testb	$64, 96(%esp)
	leal	.LC8@GOTOFF(%ebx), %eax
	jne	.L213
	movzbl	84(%esp), %ecx
	movl	56(%esp), %edx
	andl	$15, %ecx
	testl	%ecx, %ecx
	movl	%ecx, 60(%esp)
	movl	%ecx, 72(%edx)
	je	.L109
	cmpl	%esi, %ecx
	jbe	.L110
	movl	%edi, %eax
	jmp	.L174
	.p2align 4,,7
	.p2align 3
.L111:
	movl	172(%esp), %edi
	movl	%esi, %ecx
	subl	$1, %eax
	addl	$8, %esi
	movzbl	(%edi), %edx
	addl	$1, %edi
	movl	%edi, 172(%esp)
	sall	%cl, %edx
	addl	%edx, %ebp
	cmpl	60(%esp), %esi
	jae	.L228
.L174:
	testl	%eax, %eax
	jne	.L111
	movl	216(%esp), %edi
	leal	172(%esp), %ecx
	movl	%ecx, 4(%esp)
	movl	%edi, (%esp)
	call	*212(%esp)
	testl	%eax, %eax
	je	.L162
	movl	56(%esp), %edx
	movl	72(%edx), %edx
	movl	%edx, 60(%esp)
	jmp	.L111
.L36:
	movl	$16, (%edx)
	movl	$16, %eax
	jmp	.L38
.L35:
	movl	56(%esp), %edx
	leal	lenfix.3532@GOTOFF(%ebx), %eax
	movl	%eax, 76(%edx)
	leal	distfix.3533@GOTOFF(%ebx), %eax
	movl	%eax, 80(%edx)
	movl	$20, %eax
	movl	$9, 84(%edx)
	movl	$5, 88(%edx)
	movl	$20, (%edx)
	jmp	.L38
.L224:
	movl	%eax, %edi
	movl	%edx, %eax
	movb	%cl, 112(%esp)
.L101:
	movzbl	64(%esp), %ecx
	subl	108(%esp), %esi
	movzwl	104(%esp), %edx
	shrl	%cl, %ebp
	movl	%eax, %ecx
	movzbl	112(%esp), %eax
	shrl	%cl, %ebp
	subl	%eax, %esi
	movl	56(%esp), %eax
	cmpb	$0, 84(%esp)
	movl	%edx, 64(%eax)
	je	.L140
	movzbl	84(%esp), %eax
	movl	%eax, 96(%esp)
	jmp	.L141
.L143:
	movl	$-2, %eax
	jmp	.L14
.L227:
	movl	56(%esp), %edx
	movl	56(%esp), %ecx
	movl	52(%edx), %edx
	movl	%edx, 80(%esp)
	movl	56(%esp), %edx
	movl	40(%edx), %edx
	movl	%edx, 44(%ecx)
	movl	%edx, 88(%esp)
	movl	%edx, 8(%esp)
	movl	80(%esp), %edx
	movl	%edx, 4(%esp)
	movl	224(%esp), %edx
	movl	%edx, (%esp)
	call	*220(%esp)
	testl	%eax, %eax
	jne	.L215
	movl	56(%esp), %ecx
	movl	64(%ecx), %edx
	jmp	.L105
.L228:
	movl	%eax, %edi
.L110:
	movzbl	60(%esp), %ecx
	movl	$1, %eax
	movl	56(%esp), %edx
	subl	60(%esp), %esi
	sall	%cl, %eax
	subl	$1, %eax
	andl	%ebp, %eax
	addl	%eax, 64(%edx)
	shrl	%cl, %ebp
.L109:
	movl	80(%edx), %edx
	movl	$1, %eax
	movl	%edx, 60(%esp)
	movl	56(%esp), %edx
	movl	88(%edx), %edx
	movl	%edx, %ecx
	sall	%cl, %eax
	movl	60(%esp), %ecx
	subl	$1, %eax
	andl	%ebp, %eax
	movl	%edx, 84(%esp)
	leal	(%ecx,%eax,4), %edx
	movzbl	(%edx), %eax
	movb	%al, 64(%esp)
	movzbl	1(%edx), %eax
	movzwl	2(%edx), %edx
	movzbl	%al, %ecx
	cmpl	%ecx, %esi
	movl	%ecx, 108(%esp)
	jae	.L160
	movl	%edi, %eax
	jmp	.L173
	.p2align 4,,7
	.p2align 3
.L114:
	movl	172(%esp), %edi
	movl	%esi, %ecx
	addl	$8, %esi
	subl	$1, %eax
	movzbl	(%edi), %edx
	addl	$1, %edi
	movl	%edi, 172(%esp)
	movl	60(%esp), %edi
	sall	%cl, %edx
	movzbl	84(%esp), %ecx
	addl	%edx, %ebp
	movl	$1, %edx
	sall	%cl, %edx
	subl	$1, %edx
	andl	%ebp, %edx
	leal	(%edi,%edx,4), %ecx
	movzbl	(%ecx), %edx
	movzwl	2(%ecx), %edi
	movb	%dl, 64(%esp)
	movzbl	1(%ecx), %edx
	movzbl	%dl, %ecx
	cmpl	%esi, %ecx
	jbe	.L229
.L173:
	testl	%eax, %eax
	jne	.L114
	movl	216(%esp), %edx
	leal	172(%esp), %edi
	movl	%edi, 4(%esp)
	movl	%edx, (%esp)
	call	*212(%esp)
	testl	%eax, %eax
	je	.L162
	movl	56(%esp), %edi
	movl	56(%esp), %edx
	movl	80(%edi), %edi
	movl	88(%edx), %edx
	movl	%edi, 60(%esp)
	movl	%edx, 84(%esp)
	jmp	.L114
.L229:
	movl	%ecx, 108(%esp)
	movl	%edi, %ecx
	movl	%eax, %edi
	movl	%edx, %eax
	movl	%ecx, %edx
	movl	108(%esp), %ecx
	movl	%ecx, 84(%esp)
.L113:
	movzbl	64(%esp), %ecx
	movl	%ecx, 96(%esp)
	andl	$240, %ecx
	je	.L116
	movzbl	%al, %eax
.L117:
	movl	%eax, %ecx
	shrl	%cl, %ebp
	subl	84(%esp), %esi
	testb	$64, 96(%esp)
	leal	.LC9@GOTOFF(%ebx), %eax
	jne	.L213
	movzbl	64(%esp), %eax
	movzwl	%dx, %edx
	movl	56(%esp), %ecx
	movl	%edx, 84(%esp)
	andl	$15, %eax
	testl	%eax, %eax
	movl	%edx, 68(%ecx)
	movl	%eax, 60(%esp)
	movl	%eax, 72(%ecx)
	je	.L122
	cmpl	%eax, %esi
	jae	.L123
	movl	%edi, %eax
	jmp	.L171
	.p2align 4,,7
	.p2align 3
.L124:
	movl	172(%esp), %edi
	movl	%esi, %ecx
	subl	$1, %eax
	addl	$8, %esi
	movzbl	(%edi), %edx
	addl	$1, %edi
	movl	%edi, 172(%esp)
	sall	%cl, %edx
	addl	%edx, %ebp
	cmpl	60(%esp), %esi
	jae	.L230
.L171:
	testl	%eax, %eax
	jne	.L124
	movl	216(%esp), %edi
	leal	172(%esp), %edx
	movl	%edx, 4(%esp)
	movl	%edi, (%esp)
	call	*212(%esp)
	testl	%eax, %eax
	je	.L163
	movl	56(%esp), %edx
	movl	72(%edx), %edx
	movl	%edx, 60(%esp)
	jmp	.L124
.L116:
	movzbl	%al, %ecx
	movzwl	%dx, %edx
	movl	%ecx, 84(%esp)
	movl	96(%esp), %ecx
	addl	84(%esp), %ecx
	movl	%edx, 100(%esp)
	movl	$1, %edx
	sall	%cl, %edx
	movl	%eax, %ecx
	movl	100(%esp), %eax
	subl	$1, %edx
	movl	%edx, 96(%esp)
	andl	%ebp, %edx
	shrl	%cl, %edx
	movl	84(%esp), %ecx
	addl	%edx, %eax
	movl	60(%esp), %edx
	leal	(%edx,%eax,4), %eax
	movzbl	(%eax), %edx
	movb	%dl, 64(%esp)
	movzbl	1(%eax), %edx
	movb	%dl, 104(%esp)
	movzwl	2(%eax), %edx
	movzbl	104(%esp), %eax
	addl	%eax, %ecx
	cmpl	%ecx, %esi
	jae	.L118
	movl	%edi, %eax
	jmp	.L172
	.p2align 4,,7
	.p2align 3
.L119:
	movl	172(%esp), %edi
	movl	%esi, %ecx
	addl	$8, %esi
	subl	$1, %eax
	movzbl	(%edi), %edx
	addl	$1, %edi
	movl	%edi, 172(%esp)
	movl	60(%esp), %edi
	sall	%cl, %edx
	movzbl	84(%esp), %ecx
	addl	%edx, %ebp
	movl	96(%esp), %edx
	andl	%ebp, %edx
	shrl	%cl, %edx
	addl	100(%esp), %edx
	leal	(%edi,%edx,4), %edx
	movl	84(%esp), %edi
	movzbl	(%edx), %ecx
	movb	%cl, 64(%esp)
	movzbl	1(%edx), %ecx
	movzwl	2(%edx), %edx
	movw	%dx, 104(%esp)
	movzbl	%cl, %edx
	addl	%edx, %edi
	cmpl	%esi, %edi
	jbe	.L231
.L172:
	testl	%eax, %eax
	jne	.L119
	movl	216(%esp), %edi
	leal	172(%esp), %ecx
	movl	%ecx, 4(%esp)
	movl	%edi, (%esp)
	call	*212(%esp)
	testl	%eax, %eax
	je	.L162
	movl	56(%esp), %edx
	movl	80(%edx), %edx
	movl	%edx, 60(%esp)
	jmp	.L119
.L58:
	movl	56(%esp), %edx
	movl	%edi, %eax
	movl	$0, 84(%esp)
	movl	84(%esp), %edi
	movl	96(%edx), %ecx
	movl	$0, 104(%edx)
	movl	%ecx, 104(%esp)
	addl	100(%edx), %ecx
	movl	%ecx, 108(%esp)
.L204:
	cmpl	%edi, 108(%esp)
	jbe	.L86
	movl	56(%esp), %edx
	movl	56(%esp), %edi
	movl	76(%edx), %edx
	movl	84(%edi), %edi
	movl	%edx, 60(%esp)
	movl	$1, %edx
	movl	%edi, %ecx
	movl	%edi, 64(%esp)
	movl	60(%esp), %edi
	sall	%cl, %edx
	subl	$1, %edx
	andl	%ebp, %edx
	leal	(%edi,%edx,4), %edx
	movzbl	1(%edx), %ecx
	movzwl	2(%edx), %edx
	movzbl	%cl, %edi
	cmpl	%edi, %esi
	movl	%edi, 84(%esp)
	jb	.L180
	jmp	.L87
	.p2align 4,,7
	.p2align 3
.L60:
	movl	172(%esp), %edi
	movl	%esi, %ecx
	addl	$8, %esi
	subl	$1, %eax
	movzbl	(%edi), %edx
	addl	$1, %edi
	movl	%edi, 172(%esp)
	movl	60(%esp), %edi
	sall	%cl, %edx
	movzbl	64(%esp), %ecx
	addl	%edx, %ebp
	movl	$1, %edx
	sall	%cl, %edx
	subl	$1, %edx
	andl	%ebp, %edx
	leal	(%edi,%edx,4), %edx
	movzbl	1(%edx), %ecx
	movzwl	2(%edx), %edx
	movzbl	%cl, %edi
	cmpl	%esi, %edi
	jbe	.L232
.L180:
	testl	%eax, %eax
	jne	.L60
	movl	216(%esp), %edx
	leal	172(%esp), %edi
	movl	%edi, 4(%esp)
	movl	%edx, (%esp)
	call	*212(%esp)
	testl	%eax, %eax
	je	.L162
	movl	56(%esp), %edi
	movl	56(%esp), %edx
	movl	76(%edi), %edi
	movl	84(%edx), %edx
	movl	%edi, 60(%esp)
	movl	%edx, 64(%esp)
	jmp	.L60
.L232:
	movl	%edi, 84(%esp)
.L87:
	cmpw	$15, %dx
	ja	.L62
	movl	56(%esp), %edi
	shrl	%cl, %ebp
	subl	84(%esp), %esi
	movl	104(%edi), %ecx
	movw	%dx, 112(%edi,%ecx,2)
	movl	96(%edi), %edx
	addl	$1, %ecx
	movl	%ecx, 104(%edi)
	movl	%ecx, 84(%esp)
	movl	%edx, 104(%esp)
	addl	100(%edi), %edx
	movl	%ecx, %edi
	movl	%edx, 108(%esp)
	jmp	.L204
.L62:
	movzbl	%cl, %ecx
	cmpw	$16, %dx
	movl	%ecx, 64(%esp)
	je	.L233
	cmpw	$17, %dx
	je	.L71
	addl	$7, %ecx
	cmpl	%ecx, %esi
	movl	%ecx, 60(%esp)
	jb	.L179
	jmp	.L73
	.p2align 4,,7
	.p2align 3
.L77:
	movl	172(%esp), %edi
	movl	%esi, %ecx
	subl	$1, %eax
	addl	$8, %esi
	movzbl	(%edi), %edx
	addl	$1, %edi
	movl	%edi, 172(%esp)
	sall	%cl, %edx
	addl	%edx, %ebp
	cmpl	60(%esp), %esi
	jae	.L73
.L179:
	testl	%eax, %eax
	jne	.L77
	movl	216(%esp), %edx
	leal	172(%esp), %eax
	movl	%eax, 4(%esp)
	movl	%edx, (%esp)
	call	*212(%esp)
	testl	%eax, %eax
	jne	.L77
	jmp	.L162
.L231:
	movl	%eax, %edi
	movl	%edx, %eax
	movzwl	104(%esp), %edx
	movb	%cl, 104(%esp)
.L118:
	movzbl	84(%esp), %ecx
	subl	108(%esp), %esi
	shrl	%cl, %ebp
	movzbl	64(%esp), %ecx
	movl	%ecx, 96(%esp)
	movzbl	104(%esp), %ecx
	movl	%ecx, 84(%esp)
	jmp	.L117
.L230:
	movl	%eax, %edi
.L123:
	movl	56(%esp), %edx
	movl	$1, %eax
	movzbl	60(%esp), %ecx
	subl	60(%esp), %esi
	movl	68(%edx), %edx
	sall	%cl, %eax
	subl	$1, %eax
	andl	%ebp, %eax
	addl	%edx, %eax
	movl	56(%esp), %edx
	shrl	%cl, %ebp
	movl	%eax, 84(%esp)
	movl	%eax, 68(%edx)
	movl	%edx, %ecx
.L122:
	movl	56(%esp), %eax
	movl	40(%eax), %edx
	xorl	%eax, %eax
	cmpl	%edx, 44(%ecx)
	cmovb	88(%esp), %eax
	movl	%edx, %ecx
	subl	%eax, %ecx
	cmpl	84(%esp), %ecx
	jae	.L211
	movl	208(%esp), %edx
	movl	$29, %eax
	movl	92(%esp), %ecx
	movl	%ecx, 24(%edx)
	movl	56(%esp), %edx
	movl	$29, (%edx)
	jmp	.L203
.L73:
	movzbl	64(%esp), %ecx
	movl	56(%esp), %edi
	subl	84(%esp), %esi
	movl	$0, 60(%esp)
	shrl	%cl, %ebp
	movl	%ebp, %edx
	movl	104(%edi), %ecx
	subl	$7, %esi
	andl	$127, %edx
	addl	$11, %edx
	movl	%edx, 100(%esp)
	shrl	$7, %ebp
.L70:
	addl	%ecx, %edx
	movl	96(%edi), %edi
	movl	%edx, 84(%esp)
	movl	56(%esp), %edx
	movl	%edi, 104(%esp)
	addl	100(%edx), %edi
	cmpl	%edi, 84(%esp)
	movl	%edi, 108(%esp)
	ja	.L216
	movzwl	60(%esp), %edx
	movl	100(%esp), %edi
	movw	%dx, 128(%esp)
	movl	56(%esp), %edx
	subl	$1, %edi
	movl	%edi, 120(%esp)
	leal	56(%ecx), %edi
	movl	%edi, 156(%esp)
	leal	(%edx,%edi,2), %edx
	movl	100(%esp), %edi
	sall	$30, %edx
	shrl	$31, %edx
	cmpl	%edi, %edx
	cmovbe	%edx, %edi
	movl	%ecx, %edx
	testl	%edi, %edi
	movl	%edi, 60(%esp)
	je	.L80
	movl	%eax, 64(%esp)
	movl	56(%esp), %edi
	movl	%ebp, 124(%esp)
	movl	120(%esp), %eax
	movzwl	128(%esp), %ebp
	movl	%esi, 144(%esp)
.L81:
	movw	%bp, 112(%edi,%edx,2)
	addl	$1, %edx
	subl	$1, %eax
	movl	%edx, %esi
	subl	%ecx, %esi
	cmpl	%esi, 60(%esp)
	ja	.L81
	movl	%eax, 120(%esp)
	movl	124(%esp), %ebp
	movl	144(%esp), %esi
	movl	64(%esp), %eax
.L80:
	movl	100(%esp), %ecx
	subl	60(%esp), %ecx
	movl	%ecx, 100(%esp)
	shrl	%ecx
	movl	%ecx, 64(%esp)
	addl	%ecx, %ecx
	movl	%ecx, 124(%esp)
	je	.L82
	movzwl	128(%esp), %ecx
	movzwl	128(%esp), %edi
	sall	$16, %ecx
	orl	%ecx, %edi
	movl	56(%esp), %ecx
	movl	%edi, 144(%esp)
	movl	60(%esp), %edi
	addl	156(%esp), %edi
	movl	%eax, 60(%esp)
	movl	144(%esp), %eax
	leal	(%ecx,%edi,2), %edi
	xorl	%ecx, %ecx
.L83:
	movl	%eax, (%edi,%ecx,4)
	addl	$1, %ecx
	cmpl	%ecx, 64(%esp)
	ja	.L83
	movl	124(%esp), %edi
	subl	%edi, 120(%esp)
	movl	60(%esp), %eax
	addl	%edi, %edx
	cmpl	%edi, 100(%esp)
	je	.L84
.L82:
	movl	120(%esp), %ecx
	movl	56(%esp), %edi
	movl	%eax, 60(%esp)
	movzwl	128(%esp), %eax
	leal	2(%ecx,%ecx), %ecx
	movl	%ecx, 100(%esp)
	leal	(%edi,%edx,2), %edx
	movl	100(%esp), %edi
	xorl	%ecx, %ecx
.L85:
	movw	%ax, 112(%edx,%ecx)
	addl	$2, %ecx
	cmpl	%edi, %ecx
	jne	.L85
	movl	60(%esp), %eax
.L84:
	movl	84(%esp), %ecx
	movl	56(%esp), %edx
	movl	%ecx, %edi
	movl	%ecx, 104(%edx)
	jmp	.L204
.L211:
	movl	%esi, 100(%esp)
	movl	80(%esp), %esi
	movl	%edi, 64(%esp)
	movl	%edx, %edi
	movl	%ebp, 84(%esp)
.L206:
	movl	88(%esp), %eax
	testl	%eax, %eax
	je	.L234
.L129:
	movl	56(%esp), %edx
	movl	88(%esp), %ecx
	movl	68(%edx), %eax
	movl	%esi, %edx
	subl	%eax, %edi
	subl	%eax, %edx
	cmpl	%edi, %ecx
	jbe	.L132
	leal	(%esi,%edi), %edx
	subl	%edi, %ecx
.L132:
	movl	56(%esp), %edi
	movl	56(%esp), %ebp
	movl	64(%edi), %eax
	cmpl	%eax, %ecx
	movl	%eax, %edi
	cmovbe	%ecx, %edi
	subl	%edi, %eax
	movl	%eax, 64(%ebp)
	movl	%edi, %ebp
	shrl	$2, %ebp
	leal	0(,%ebp,4), %eax
	movl	%eax, 60(%esp)
	leal	4(%edx), %eax
	subl	%edi, 88(%esp)
	cmpl	%eax, %esi
	leal	4(%esi), %eax
	seta	%cl
	cmpl	%eax, %edx
	seta	%al
	orl	%eax, %ecx
	movl	%edx, %eax
	orl	%esi, %eax
	testb	$3, %al
	sete	%al
	cmpl	$9, %edi
	seta	80(%esp)
	andb	80(%esp), %al
	testb	%al, %cl
	je	.L165
	movl	60(%esp), %eax
	testl	%eax, %eax
	je	.L165
	xorl	%eax, %eax
	.p2align 4,,7
	.p2align 3
.L134:
	movl	(%edx,%eax,4), %ecx
	movl	%ecx, (%esi,%eax,4)
	addl	$1, %eax
	cmpl	%eax, %ebp
	ja	.L134
	movl	60(%esp), %eax
	movl	%edi, %ecx
	addl	60(%esp), %edx
	subl	60(%esp), %ecx
	addl	%esi, %eax
	cmpl	60(%esp), %edi
	je	.L135
	movl	%ecx, 60(%esp)
	.p2align 4,,7
	.p2align 3
.L170:
	movzbl	(%edx), %ebp
	addl	$1, %edx
	movl	%ebp, %ecx
	movb	%cl, (%eax)
	addl	$1, %eax
	subl	$1, 60(%esp)
	jne	.L170
.L135:
	addl	%edi, %esi
	movl	56(%esp), %edi
	movl	64(%edi), %ecx
	movl	%edi, %edx
	testl	%ecx, %ecx
	je	.L235
	movl	40(%edi), %edi
	jmp	.L206
.L234:
	movl	56(%esp), %edx
	movl	224(%esp), %ebp
	movl	52(%edx), %esi
	movl	%edi, 44(%edx)
	movl	%edi, 8(%esp)
	movl	%ebp, (%esp)
	movl	%esi, 4(%esp)
	call	*220(%esp)
	testl	%eax, %eax
	jne	.L236
	movl	56(%esp), %edx
	movl	%edi, 88(%esp)
	movl	40(%edx), %edi
	jmp	.L129
.L71:
	addl	$3, %ecx
	cmpl	%ecx, %esi
	movl	%ecx, 60(%esp)
	jb	.L178
	jmp	.L74
	.p2align 4,,7
	.p2align 3
.L75:
	movl	172(%esp), %edi
	movl	%esi, %ecx
	subl	$1, %eax
	addl	$8, %esi
	movzbl	(%edi), %edx
	addl	$1, %edi
	movl	%edi, 172(%esp)
	sall	%cl, %edx
	addl	%edx, %ebp
	cmpl	60(%esp), %esi
	jae	.L74
.L178:
	testl	%eax, %eax
	jne	.L75
	movl	216(%esp), %edx
	leal	172(%esp), %eax
	movl	%eax, 4(%esp)
	movl	%edx, (%esp)
	call	*212(%esp)
	testl	%eax, %eax
	jne	.L75
	jmp	.L162
.L235:
	movl	%esi, 80(%esp)
	movl	64(%esp), %edi
	movl	84(%esp), %ebp
	movl	100(%esp), %esi
	movl	(%edx), %eax
	jmp	.L203
.L233:
	addl	$2, %ecx
	cmpl	%ecx, %esi
	movl	%ecx, 60(%esp)
	jb	.L177
	jmp	.L65
	.p2align 4,,7
	.p2align 3
.L66:
	movl	172(%esp), %edi
	movl	%esi, %ecx
	subl	$1, %eax
	addl	$8, %esi
	movzbl	(%edi), %edx
	addl	$1, %edi
	movl	%edi, 172(%esp)
	sall	%cl, %edx
	addl	%edx, %ebp
	cmpl	60(%esp), %esi
	jae	.L65
.L177:
	testl	%eax, %eax
	jne	.L66
	movl	216(%esp), %edi
	leal	172(%esp), %ecx
	movl	%ecx, 4(%esp)
	movl	%edi, (%esp)
	call	*212(%esp)
	testl	%eax, %eax
	jne	.L66
	jmp	.L162
.L65:
	movzbl	64(%esp), %ecx
	movl	56(%esp), %edi
	subl	84(%esp), %esi
	shrl	%cl, %ebp
	movl	104(%edi), %ecx
	testl	%ecx, %ecx
	je	.L216
	movzwl	110(%edi,%ecx,2), %edi
	subl	$2, %esi
	movl	%edi, 60(%esp)
	movl	%ebp, %edi
	andl	$3, %edi
	addl	$3, %edi
	movl	%edi, 100(%esp)
	movl	%edi, %edx
	movl	56(%esp), %edi
	shrl	$2, %ebp
	jmp	.L70
.L74:
	movzbl	64(%esp), %ecx
	movl	56(%esp), %edi
	subl	84(%esp), %esi
	movl	$0, 60(%esp)
	shrl	%cl, %ebp
	movl	%ebp, %edx
	subl	$3, %esi
	movl	104(%edi), %ecx
	andl	$7, %edx
	addl	$3, %edx
	movl	%edx, 100(%esp)
	shrl	$3, %ebp
	jmp	.L70
.L86:
	movl	56(%esp), %edx
	movl	%eax, %edi
	cmpl	$29, (%edx)
	je	.L155
	cmpw	$0, 624(%edx)
	leal	.LC5@GOTOFF(%ebx), %eax
	je	.L213
	movl	56(%esp), %edx
	movl	96(%esp), %ecx
	movl	$9, 84(%edx)
	movl	%ecx, 108(%edx)
	movl	%ecx, 76(%edx)
	movl	112(%esp), %edx
	movl	104(%esp), %ecx
	movl	$1, (%esp)
	movl	%edx, 20(%esp)
	movl	148(%esp), %edx
	movl	%ecx, 8(%esp)
	movl	%edx, 16(%esp)
	movl	116(%esp), %edx
	movl	%edx, 12(%esp)
	movl	152(%esp), %edx
	movl	%edx, 4(%esp)
	call	inflate_table
	testl	%eax, %eax
	je	.L90
	leal	.LC6@GOTOFF(%ebx), %eax
	jmp	.L213
.L160:
	movl	108(%esp), %ecx
	movl	%ecx, 84(%esp)
	jmp	.L113
.L236:
	movl	64(%esp), %edi
.L215:
	movl	172(%esp), %edx
	movl	$-5, %eax
	jmp	.L25
.L163:
	movl	%eax, %edi
	xorl	%edx, %edx
	jmp	.L214
.L216:
	movl	208(%esp), %edx
	movl	%eax, %edi
	leal	.LC4@GOTOFF(%ebx), %eax
	movl	%eax, 24(%edx)
	movl	56(%esp), %edx
	movl	$29, (%edx)
.L155:
	movl	$29, %eax
	jmp	.L203
.L90:
	movl	56(%esp), %edx
	movl	108(%edx), %eax
	movl	$6, 88(%edx)
	movl	%eax, 80(%edx)
	movl	112(%esp), %edx
	movl	56(%esp), %eax
	movl	%edx, 20(%esp)
	movl	116(%esp), %edx
	addl	$88, %eax
	movl	%eax, 16(%esp)
	movl	%edx, 12(%esp)
	movl	56(%esp), %edx
	movl	100(%edx), %eax
	movl	%eax, 8(%esp)
	movl	96(%edx), %eax
	movl	$2, (%esp)
	leal	112(%edx,%eax,2), %eax
	movl	%eax, 4(%esp)
	call	inflate_table
	testl	%eax, %eax
	je	.L91
	leal	.LC7@GOTOFF(%ebx), %eax
	jmp	.L213
.L165:
	movl	%esi, %eax
	movl	%edi, 60(%esp)
	jmp	.L170
	.cfi_endproc
.LFE47:
	.size	inflateBack, .-inflateBack
	.p2align 4,,15
	.globl	inflateBackEnd
	.type	inflateBackEnd, @function
inflateBackEnd:
.LFB48:
	.cfi_startproc
	pushl	%esi
	.cfi_def_cfa_offset 8
	.cfi_offset 6, -8
	subl	$24, %esp
	.cfi_def_cfa_offset 32
	movl	32(%esp), %esi
	testl	%esi, %esi
	je	.L241
	movl	28(%esi), %eax
	testl	%eax, %eax
	je	.L241
	movl	36(%esi), %edx
	testl	%edx, %edx
	je	.L241
	movl	%eax, 4(%esp)
	movl	40(%esi), %eax
	movl	%eax, (%esp)
	call	*%edx
	xorl	%eax, %eax
	movl	$0, 28(%esi)
.L238:
	addl	$24, %esp
	.cfi_remember_state
	.cfi_def_cfa_offset 8
	popl	%esi
	.cfi_def_cfa_offset 4
	.cfi_restore 6
	ret
	.p2align 4,,7
	.p2align 3
.L241:
	.cfi_restore_state
	movl	$-2, %eax
	jmp	.L238
	.cfi_endproc
.LFE48:
	.size	inflateBackEnd, .-inflateBackEnd
	.section	.rodata
	.align 32
	.type	lenfix.3532, @object
	.size	lenfix.3532, 2048
lenfix.3532:
	.byte	96
	.byte	7
	.value	0
	.byte	0
	.byte	8
	.value	80
	.byte	0
	.byte	8
	.value	16
	.byte	20
	.byte	8
	.value	115
	.byte	18
	.byte	7
	.value	31
	.byte	0
	.byte	8
	.value	112
	.byte	0
	.byte	8
	.value	48
	.byte	0
	.byte	9
	.value	192
	.byte	16
	.byte	7
	.value	10
	.byte	0
	.byte	8
	.value	96
	.byte	0
	.byte	8
	.value	32
	.byte	0
	.byte	9
	.value	160
	.byte	0
	.byte	8
	.value	0
	.byte	0
	.byte	8
	.value	128
	.byte	0
	.byte	8
	.value	64
	.byte	0
	.byte	9
	.value	224
	.byte	16
	.byte	7
	.value	6
	.byte	0
	.byte	8
	.value	88
	.byte	0
	.byte	8
	.value	24
	.byte	0
	.byte	9
	.value	144
	.byte	19
	.byte	7
	.value	59
	.byte	0
	.byte	8
	.value	120
	.byte	0
	.byte	8
	.value	56
	.byte	0
	.byte	9
	.value	208
	.byte	17
	.byte	7
	.value	17
	.byte	0
	.byte	8
	.value	104
	.byte	0
	.byte	8
	.value	40
	.byte	0
	.byte	9
	.value	176
	.byte	0
	.byte	8
	.value	8
	.byte	0
	.byte	8
	.value	136
	.byte	0
	.byte	8
	.value	72
	.byte	0
	.byte	9
	.value	240
	.byte	16
	.byte	7
	.value	4
	.byte	0
	.byte	8
	.value	84
	.byte	0
	.byte	8
	.value	20
	.byte	21
	.byte	8
	.value	227
	.byte	19
	.byte	7
	.value	43
	.byte	0
	.byte	8
	.value	116
	.byte	0
	.byte	8
	.value	52
	.byte	0
	.byte	9
	.value	200
	.byte	17
	.byte	7
	.value	13
	.byte	0
	.byte	8
	.value	100
	.byte	0
	.byte	8
	.value	36
	.byte	0
	.byte	9
	.value	168
	.byte	0
	.byte	8
	.value	4
	.byte	0
	.byte	8
	.value	132
	.byte	0
	.byte	8
	.value	68
	.byte	0
	.byte	9
	.value	232
	.byte	16
	.byte	7
	.value	8
	.byte	0
	.byte	8
	.value	92
	.byte	0
	.byte	8
	.value	28
	.byte	0
	.byte	9
	.value	152
	.byte	20
	.byte	7
	.value	83
	.byte	0
	.byte	8
	.value	124
	.byte	0
	.byte	8
	.value	60
	.byte	0
	.byte	9
	.value	216
	.byte	18
	.byte	7
	.value	23
	.byte	0
	.byte	8
	.value	108
	.byte	0
	.byte	8
	.value	44
	.byte	0
	.byte	9
	.value	184
	.byte	0
	.byte	8
	.value	12
	.byte	0
	.byte	8
	.value	140
	.byte	0
	.byte	8
	.value	76
	.byte	0
	.byte	9
	.value	248
	.byte	16
	.byte	7
	.value	3
	.byte	0
	.byte	8
	.value	82
	.byte	0
	.byte	8
	.value	18
	.byte	21
	.byte	8
	.value	163
	.byte	19
	.byte	7
	.value	35
	.byte	0
	.byte	8
	.value	114
	.byte	0
	.byte	8
	.value	50
	.byte	0
	.byte	9
	.value	196
	.byte	17
	.byte	7
	.value	11
	.byte	0
	.byte	8
	.value	98
	.byte	0
	.byte	8
	.value	34
	.byte	0
	.byte	9
	.value	164
	.byte	0
	.byte	8
	.value	2
	.byte	0
	.byte	8
	.value	130
	.byte	0
	.byte	8
	.value	66
	.byte	0
	.byte	9
	.value	228
	.byte	16
	.byte	7
	.value	7
	.byte	0
	.byte	8
	.value	90
	.byte	0
	.byte	8
	.value	26
	.byte	0
	.byte	9
	.value	148
	.byte	20
	.byte	7
	.value	67
	.byte	0
	.byte	8
	.value	122
	.byte	0
	.byte	8
	.value	58
	.byte	0
	.byte	9
	.value	212
	.byte	18
	.byte	7
	.value	19
	.byte	0
	.byte	8
	.value	106
	.byte	0
	.byte	8
	.value	42
	.byte	0
	.byte	9
	.value	180
	.byte	0
	.byte	8
	.value	10
	.byte	0
	.byte	8
	.value	138
	.byte	0
	.byte	8
	.value	74
	.byte	0
	.byte	9
	.value	244
	.byte	16
	.byte	7
	.value	5
	.byte	0
	.byte	8
	.value	86
	.byte	0
	.byte	8
	.value	22
	.byte	64
	.byte	8
	.value	0
	.byte	19
	.byte	7
	.value	51
	.byte	0
	.byte	8
	.value	118
	.byte	0
	.byte	8
	.value	54
	.byte	0
	.byte	9
	.value	204
	.byte	17
	.byte	7
	.value	15
	.byte	0
	.byte	8
	.value	102
	.byte	0
	.byte	8
	.value	38
	.byte	0
	.byte	9
	.value	172
	.byte	0
	.byte	8
	.value	6
	.byte	0
	.byte	8
	.value	134
	.byte	0
	.byte	8
	.value	70
	.byte	0
	.byte	9
	.value	236
	.byte	16
	.byte	7
	.value	9
	.byte	0
	.byte	8
	.value	94
	.byte	0
	.byte	8
	.value	30
	.byte	0
	.byte	9
	.value	156
	.byte	20
	.byte	7
	.value	99
	.byte	0
	.byte	8
	.value	126
	.byte	0
	.byte	8
	.value	62
	.byte	0
	.byte	9
	.value	220
	.byte	18
	.byte	7
	.value	27
	.byte	0
	.byte	8
	.value	110
	.byte	0
	.byte	8
	.value	46
	.byte	0
	.byte	9
	.value	188
	.byte	0
	.byte	8
	.value	14
	.byte	0
	.byte	8
	.value	142
	.byte	0
	.byte	8
	.value	78
	.byte	0
	.byte	9
	.value	252
	.byte	96
	.byte	7
	.value	0
	.byte	0
	.byte	8
	.value	81
	.byte	0
	.byte	8
	.value	17
	.byte	21
	.byte	8
	.value	131
	.byte	18
	.byte	7
	.value	31
	.byte	0
	.byte	8
	.value	113
	.byte	0
	.byte	8
	.value	49
	.byte	0
	.byte	9
	.value	194
	.byte	16
	.byte	7
	.value	10
	.byte	0
	.byte	8
	.value	97
	.byte	0
	.byte	8
	.value	33
	.byte	0
	.byte	9
	.value	162
	.byte	0
	.byte	8
	.value	1
	.byte	0
	.byte	8
	.value	129
	.byte	0
	.byte	8
	.value	65
	.byte	0
	.byte	9
	.value	226
	.byte	16
	.byte	7
	.value	6
	.byte	0
	.byte	8
	.value	89
	.byte	0
	.byte	8
	.value	25
	.byte	0
	.byte	9
	.value	146
	.byte	19
	.byte	7
	.value	59
	.byte	0
	.byte	8
	.value	121
	.byte	0
	.byte	8
	.value	57
	.byte	0
	.byte	9
	.value	210
	.byte	17
	.byte	7
	.value	17
	.byte	0
	.byte	8
	.value	105
	.byte	0
	.byte	8
	.value	41
	.byte	0
	.byte	9
	.value	178
	.byte	0
	.byte	8
	.value	9
	.byte	0
	.byte	8
	.value	137
	.byte	0
	.byte	8
	.value	73
	.byte	0
	.byte	9
	.value	242
	.byte	16
	.byte	7
	.value	4
	.byte	0
	.byte	8
	.value	85
	.byte	0
	.byte	8
	.value	21
	.byte	16
	.byte	8
	.value	258
	.byte	19
	.byte	7
	.value	43
	.byte	0
	.byte	8
	.value	117
	.byte	0
	.byte	8
	.value	53
	.byte	0
	.byte	9
	.value	202
	.byte	17
	.byte	7
	.value	13
	.byte	0
	.byte	8
	.value	101
	.byte	0
	.byte	8
	.value	37
	.byte	0
	.byte	9
	.value	170
	.byte	0
	.byte	8
	.value	5
	.byte	0
	.byte	8
	.value	133
	.byte	0
	.byte	8
	.value	69
	.byte	0
	.byte	9
	.value	234
	.byte	16
	.byte	7
	.value	8
	.byte	0
	.byte	8
	.value	93
	.byte	0
	.byte	8
	.value	29
	.byte	0
	.byte	9
	.value	154
	.byte	20
	.byte	7
	.value	83
	.byte	0
	.byte	8
	.value	125
	.byte	0
	.byte	8
	.value	61
	.byte	0
	.byte	9
	.value	218
	.byte	18
	.byte	7
	.value	23
	.byte	0
	.byte	8
	.value	109
	.byte	0
	.byte	8
	.value	45
	.byte	0
	.byte	9
	.value	186
	.byte	0
	.byte	8
	.value	13
	.byte	0
	.byte	8
	.value	141
	.byte	0
	.byte	8
	.value	77
	.byte	0
	.byte	9
	.value	250
	.byte	16
	.byte	7
	.value	3
	.byte	0
	.byte	8
	.value	83
	.byte	0
	.byte	8
	.value	19
	.byte	21
	.byte	8
	.value	195
	.byte	19
	.byte	7
	.value	35
	.byte	0
	.byte	8
	.value	115
	.byte	0
	.byte	8
	.value	51
	.byte	0
	.byte	9
	.value	198
	.byte	17
	.byte	7
	.value	11
	.byte	0
	.byte	8
	.value	99
	.byte	0
	.byte	8
	.value	35
	.byte	0
	.byte	9
	.value	166
	.byte	0
	.byte	8
	.value	3
	.byte	0
	.byte	8
	.value	131
	.byte	0
	.byte	8
	.value	67
	.byte	0
	.byte	9
	.value	230
	.byte	16
	.byte	7
	.value	7
	.byte	0
	.byte	8
	.value	91
	.byte	0
	.byte	8
	.value	27
	.byte	0
	.byte	9
	.value	150
	.byte	20
	.byte	7
	.value	67
	.byte	0
	.byte	8
	.value	123
	.byte	0
	.byte	8
	.value	59
	.byte	0
	.byte	9
	.value	214
	.byte	18
	.byte	7
	.value	19
	.byte	0
	.byte	8
	.value	107
	.byte	0
	.byte	8
	.value	43
	.byte	0
	.byte	9
	.value	182
	.byte	0
	.byte	8
	.value	11
	.byte	0
	.byte	8
	.value	139
	.byte	0
	.byte	8
	.value	75
	.byte	0
	.byte	9
	.value	246
	.byte	16
	.byte	7
	.value	5
	.byte	0
	.byte	8
	.value	87
	.byte	0
	.byte	8
	.value	23
	.byte	64
	.byte	8
	.value	0
	.byte	19
	.byte	7
	.value	51
	.byte	0
	.byte	8
	.value	119
	.byte	0
	.byte	8
	.value	55
	.byte	0
	.byte	9
	.value	206
	.byte	17
	.byte	7
	.value	15
	.byte	0
	.byte	8
	.value	103
	.byte	0
	.byte	8
	.value	39
	.byte	0
	.byte	9
	.value	174
	.byte	0
	.byte	8
	.value	7
	.byte	0
	.byte	8
	.value	135
	.byte	0
	.byte	8
	.value	71
	.byte	0
	.byte	9
	.value	238
	.byte	16
	.byte	7
	.value	9
	.byte	0
	.byte	8
	.value	95
	.byte	0
	.byte	8
	.value	31
	.byte	0
	.byte	9
	.value	158
	.byte	20
	.byte	7
	.value	99
	.byte	0
	.byte	8
	.value	127
	.byte	0
	.byte	8
	.value	63
	.byte	0
	.byte	9
	.value	222
	.byte	18
	.byte	7
	.value	27
	.byte	0
	.byte	8
	.value	111
	.byte	0
	.byte	8
	.value	47
	.byte	0
	.byte	9
	.value	190
	.byte	0
	.byte	8
	.value	15
	.byte	0
	.byte	8
	.value	143
	.byte	0
	.byte	8
	.value	79
	.byte	0
	.byte	9
	.value	254
	.byte	96
	.byte	7
	.value	0
	.byte	0
	.byte	8
	.value	80
	.byte	0
	.byte	8
	.value	16
	.byte	20
	.byte	8
	.value	115
	.byte	18
	.byte	7
	.value	31
	.byte	0
	.byte	8
	.value	112
	.byte	0
	.byte	8
	.value	48
	.byte	0
	.byte	9
	.value	193
	.byte	16
	.byte	7
	.value	10
	.byte	0
	.byte	8
	.value	96
	.byte	0
	.byte	8
	.value	32
	.byte	0
	.byte	9
	.value	161
	.byte	0
	.byte	8
	.value	0
	.byte	0
	.byte	8
	.value	128
	.byte	0
	.byte	8
	.value	64
	.byte	0
	.byte	9
	.value	225
	.byte	16
	.byte	7
	.value	6
	.byte	0
	.byte	8
	.value	88
	.byte	0
	.byte	8
	.value	24
	.byte	0
	.byte	9
	.value	145
	.byte	19
	.byte	7
	.value	59
	.byte	0
	.byte	8
	.value	120
	.byte	0
	.byte	8
	.value	56
	.byte	0
	.byte	9
	.value	209
	.byte	17
	.byte	7
	.value	17
	.byte	0
	.byte	8
	.value	104
	.byte	0
	.byte	8
	.value	40
	.byte	0
	.byte	9
	.value	177
	.byte	0
	.byte	8
	.value	8
	.byte	0
	.byte	8
	.value	136
	.byte	0
	.byte	8
	.value	72
	.byte	0
	.byte	9
	.value	241
	.byte	16
	.byte	7
	.value	4
	.byte	0
	.byte	8
	.value	84
	.byte	0
	.byte	8
	.value	20
	.byte	21
	.byte	8
	.value	227
	.byte	19
	.byte	7
	.value	43
	.byte	0
	.byte	8
	.value	116
	.byte	0
	.byte	8
	.value	52
	.byte	0
	.byte	9
	.value	201
	.byte	17
	.byte	7
	.value	13
	.byte	0
	.byte	8
	.value	100
	.byte	0
	.byte	8
	.value	36
	.byte	0
	.byte	9
	.value	169
	.byte	0
	.byte	8
	.value	4
	.byte	0
	.byte	8
	.value	132
	.byte	0
	.byte	8
	.value	68
	.byte	0
	.byte	9
	.value	233
	.byte	16
	.byte	7
	.value	8
	.byte	0
	.byte	8
	.value	92
	.byte	0
	.byte	8
	.value	28
	.byte	0
	.byte	9
	.value	153
	.byte	20
	.byte	7
	.value	83
	.byte	0
	.byte	8
	.value	124
	.byte	0
	.byte	8
	.value	60
	.byte	0
	.byte	9
	.value	217
	.byte	18
	.byte	7
	.value	23
	.byte	0
	.byte	8
	.value	108
	.byte	0
	.byte	8
	.value	44
	.byte	0
	.byte	9
	.value	185
	.byte	0
	.byte	8
	.value	12
	.byte	0
	.byte	8
	.value	140
	.byte	0
	.byte	8
	.value	76
	.byte	0
	.byte	9
	.value	249
	.byte	16
	.byte	7
	.value	3
	.byte	0
	.byte	8
	.value	82
	.byte	0
	.byte	8
	.value	18
	.byte	21
	.byte	8
	.value	163
	.byte	19
	.byte	7
	.value	35
	.byte	0
	.byte	8
	.value	114
	.byte	0
	.byte	8
	.value	50
	.byte	0
	.byte	9
	.value	197
	.byte	17
	.byte	7
	.value	11
	.byte	0
	.byte	8
	.value	98
	.byte	0
	.byte	8
	.value	34
	.byte	0
	.byte	9
	.value	165
	.byte	0
	.byte	8
	.value	2
	.byte	0
	.byte	8
	.value	130
	.byte	0
	.byte	8
	.value	66
	.byte	0
	.byte	9
	.value	229
	.byte	16
	.byte	7
	.value	7
	.byte	0
	.byte	8
	.value	90
	.byte	0
	.byte	8
	.value	26
	.byte	0
	.byte	9
	.value	149
	.byte	20
	.byte	7
	.value	67
	.byte	0
	.byte	8
	.value	122
	.byte	0
	.byte	8
	.value	58
	.byte	0
	.byte	9
	.value	213
	.byte	18
	.byte	7
	.value	19
	.byte	0
	.byte	8
	.value	106
	.byte	0
	.byte	8
	.value	42
	.byte	0
	.byte	9
	.value	181
	.byte	0
	.byte	8
	.value	10
	.byte	0
	.byte	8
	.value	138
	.byte	0
	.byte	8
	.value	74
	.byte	0
	.byte	9
	.value	245
	.byte	16
	.byte	7
	.value	5
	.byte	0
	.byte	8
	.value	86
	.byte	0
	.byte	8
	.value	22
	.byte	64
	.byte	8
	.value	0
	.byte	19
	.byte	7
	.value	51
	.byte	0
	.byte	8
	.value	118
	.byte	0
	.byte	8
	.value	54
	.byte	0
	.byte	9
	.value	205
	.byte	17
	.byte	7
	.value	15
	.byte	0
	.byte	8
	.value	102
	.byte	0
	.byte	8
	.value	38
	.byte	0
	.byte	9
	.value	173
	.byte	0
	.byte	8
	.value	6
	.byte	0
	.byte	8
	.value	134
	.byte	0
	.byte	8
	.value	70
	.byte	0
	.byte	9
	.value	237
	.byte	16
	.byte	7
	.value	9
	.byte	0
	.byte	8
	.value	94
	.byte	0
	.byte	8
	.value	30
	.byte	0
	.byte	9
	.value	157
	.byte	20
	.byte	7
	.value	99
	.byte	0
	.byte	8
	.value	126
	.byte	0
	.byte	8
	.value	62
	.byte	0
	.byte	9
	.value	221
	.byte	18
	.byte	7
	.value	27
	.byte	0
	.byte	8
	.value	110
	.byte	0
	.byte	8
	.value	46
	.byte	0
	.byte	9
	.value	189
	.byte	0
	.byte	8
	.value	14
	.byte	0
	.byte	8
	.value	142
	.byte	0
	.byte	8
	.value	78
	.byte	0
	.byte	9
	.value	253
	.byte	96
	.byte	7
	.value	0
	.byte	0
	.byte	8
	.value	81
	.byte	0
	.byte	8
	.value	17
	.byte	21
	.byte	8
	.value	131
	.byte	18
	.byte	7
	.value	31
	.byte	0
	.byte	8
	.value	113
	.byte	0
	.byte	8
	.value	49
	.byte	0
	.byte	9
	.value	195
	.byte	16
	.byte	7
	.value	10
	.byte	0
	.byte	8
	.value	97
	.byte	0
	.byte	8
	.value	33
	.byte	0
	.byte	9
	.value	163
	.byte	0
	.byte	8
	.value	1
	.byte	0
	.byte	8
	.value	129
	.byte	0
	.byte	8
	.value	65
	.byte	0
	.byte	9
	.value	227
	.byte	16
	.byte	7
	.value	6
	.byte	0
	.byte	8
	.value	89
	.byte	0
	.byte	8
	.value	25
	.byte	0
	.byte	9
	.value	147
	.byte	19
	.byte	7
	.value	59
	.byte	0
	.byte	8
	.value	121
	.byte	0
	.byte	8
	.value	57
	.byte	0
	.byte	9
	.value	211
	.byte	17
	.byte	7
	.value	17
	.byte	0
	.byte	8
	.value	105
	.byte	0
	.byte	8
	.value	41
	.byte	0
	.byte	9
	.value	179
	.byte	0
	.byte	8
	.value	9
	.byte	0
	.byte	8
	.value	137
	.byte	0
	.byte	8
	.value	73
	.byte	0
	.byte	9
	.value	243
	.byte	16
	.byte	7
	.value	4
	.byte	0
	.byte	8
	.value	85
	.byte	0
	.byte	8
	.value	21
	.byte	16
	.byte	8
	.value	258
	.byte	19
	.byte	7
	.value	43
	.byte	0
	.byte	8
	.value	117
	.byte	0
	.byte	8
	.value	53
	.byte	0
	.byte	9
	.value	203
	.byte	17
	.byte	7
	.value	13
	.byte	0
	.byte	8
	.value	101
	.byte	0
	.byte	8
	.value	37
	.byte	0
	.byte	9
	.value	171
	.byte	0
	.byte	8
	.value	5
	.byte	0
	.byte	8
	.value	133
	.byte	0
	.byte	8
	.value	69
	.byte	0
	.byte	9
	.value	235
	.byte	16
	.byte	7
	.value	8
	.byte	0
	.byte	8
	.value	93
	.byte	0
	.byte	8
	.value	29
	.byte	0
	.byte	9
	.value	155
	.byte	20
	.byte	7
	.value	83
	.byte	0
	.byte	8
	.value	125
	.byte	0
	.byte	8
	.value	61
	.byte	0
	.byte	9
	.value	219
	.byte	18
	.byte	7
	.value	23
	.byte	0
	.byte	8
	.value	109
	.byte	0
	.byte	8
	.value	45
	.byte	0
	.byte	9
	.value	187
	.byte	0
	.byte	8
	.value	13
	.byte	0
	.byte	8
	.value	141
	.byte	0
	.byte	8
	.value	77
	.byte	0
	.byte	9
	.value	251
	.byte	16
	.byte	7
	.value	3
	.byte	0
	.byte	8
	.value	83
	.byte	0
	.byte	8
	.value	19
	.byte	21
	.byte	8
	.value	195
	.byte	19
	.byte	7
	.value	35
	.byte	0
	.byte	8
	.value	115
	.byte	0
	.byte	8
	.value	51
	.byte	0
	.byte	9
	.value	199
	.byte	17
	.byte	7
	.value	11
	.byte	0
	.byte	8
	.value	99
	.byte	0
	.byte	8
	.value	35
	.byte	0
	.byte	9
	.value	167
	.byte	0
	.byte	8
	.value	3
	.byte	0
	.byte	8
	.value	131
	.byte	0
	.byte	8
	.value	67
	.byte	0
	.byte	9
	.value	231
	.byte	16
	.byte	7
	.value	7
	.byte	0
	.byte	8
	.value	91
	.byte	0
	.byte	8
	.value	27
	.byte	0
	.byte	9
	.value	151
	.byte	20
	.byte	7
	.value	67
	.byte	0
	.byte	8
	.value	123
	.byte	0
	.byte	8
	.value	59
	.byte	0
	.byte	9
	.value	215
	.byte	18
	.byte	7
	.value	19
	.byte	0
	.byte	8
	.value	107
	.byte	0
	.byte	8
	.value	43
	.byte	0
	.byte	9
	.value	183
	.byte	0
	.byte	8
	.value	11
	.byte	0
	.byte	8
	.value	139
	.byte	0
	.byte	8
	.value	75
	.byte	0
	.byte	9
	.value	247
	.byte	16
	.byte	7
	.value	5
	.byte	0
	.byte	8
	.value	87
	.byte	0
	.byte	8
	.value	23
	.byte	64
	.byte	8
	.value	0
	.byte	19
	.byte	7
	.value	51
	.byte	0
	.byte	8
	.value	119
	.byte	0
	.byte	8
	.value	55
	.byte	0
	.byte	9
	.value	207
	.byte	17
	.byte	7
	.value	15
	.byte	0
	.byte	8
	.value	103
	.byte	0
	.byte	8
	.value	39
	.byte	0
	.byte	9
	.value	175
	.byte	0
	.byte	8
	.value	7
	.byte	0
	.byte	8
	.value	135
	.byte	0
	.byte	8
	.value	71
	.byte	0
	.byte	9
	.value	239
	.byte	16
	.byte	7
	.value	9
	.byte	0
	.byte	8
	.value	95
	.byte	0
	.byte	8
	.value	31
	.byte	0
	.byte	9
	.value	159
	.byte	20
	.byte	7
	.value	99
	.byte	0
	.byte	8
	.value	127
	.byte	0
	.byte	8
	.value	63
	.byte	0
	.byte	9
	.value	223
	.byte	18
	.byte	7
	.value	27
	.byte	0
	.byte	8
	.value	111
	.byte	0
	.byte	8
	.value	47
	.byte	0
	.byte	9
	.value	191
	.byte	0
	.byte	8
	.value	15
	.byte	0
	.byte	8
	.value	143
	.byte	0
	.byte	8
	.value	79
	.byte	0
	.byte	9
	.value	255
	.align 32
	.type	distfix.3533, @object
	.size	distfix.3533, 128
distfix.3533:
	.byte	16
	.byte	5
	.value	1
	.byte	23
	.byte	5
	.value	257
	.byte	19
	.byte	5
	.value	17
	.byte	27
	.byte	5
	.value	4097
	.byte	17
	.byte	5
	.value	5
	.byte	25
	.byte	5
	.value	1025
	.byte	21
	.byte	5
	.value	65
	.byte	29
	.byte	5
	.value	16385
	.byte	16
	.byte	5
	.value	3
	.byte	24
	.byte	5
	.value	513
	.byte	20
	.byte	5
	.value	33
	.byte	28
	.byte	5
	.value	8193
	.byte	18
	.byte	5
	.value	9
	.byte	26
	.byte	5
	.value	2049
	.byte	22
	.byte	5
	.value	129
	.byte	64
	.byte	5
	.value	0
	.byte	16
	.byte	5
	.value	2
	.byte	23
	.byte	5
	.value	385
	.byte	19
	.byte	5
	.value	25
	.byte	27
	.byte	5
	.value	6145
	.byte	17
	.byte	5
	.value	7
	.byte	25
	.byte	5
	.value	1537
	.byte	21
	.byte	5
	.value	97
	.byte	29
	.byte	5
	.value	24577
	.byte	16
	.byte	5
	.value	4
	.byte	24
	.byte	5
	.value	769
	.byte	20
	.byte	5
	.value	49
	.byte	28
	.byte	5
	.value	12289
	.byte	18
	.byte	5
	.value	13
	.byte	26
	.byte	5
	.value	3073
	.byte	22
	.byte	5
	.value	193
	.byte	64
	.byte	5
	.value	0
	.align 32
	.type	order.3554, @object
	.size	order.3554, 38
order.3554:
	.value	16
	.value	17
	.value	18
	.value	0
	.value	8
	.value	7
	.value	9
	.value	6
	.value	10
	.value	5
	.value	11
	.value	4
	.value	12
	.value	3
	.value	13
	.value	2
	.value	14
	.value	1
	.value	15
	.section	.text.__i686.get_pc_thunk.bx,"axG",@progbits,__i686.get_pc_thunk.bx,comdat
	.globl	__i686.get_pc_thunk.bx
	.hidden	__i686.get_pc_thunk.bx
	.type	__i686.get_pc_thunk.bx, @function
__i686.get_pc_thunk.bx:
.LFB49:
	.cfi_startproc
	movl	(%esp), %ebx
	ret
	.cfi_endproc
.LFE49:
	.hidden	inflate_fast
	.hidden	inflate_table
	.hidden	zcfree
	.hidden	zcalloc
	.ident	"GCC: (Ubuntu/Linaro 4.6.3-1ubuntu5) 4.6.3"
	.section	.note.GNU-stack,"",@progbits
